Certificate:
    Data:
        Version: 3 (0x2)
        Serial Number: 1 (0x1)
        Signature Algorithm: sha256WithRSAEncryption
        Issuer: CN=QUIC Server Root CA
        Validity
            Not Before: May 29 10:56:07 2016 GMT
            Not After : Jun  1 10:56:07 2016 GMT
        Subject: C=US, ST=California, L=Mountain View, O=QUIC Server, CN=127.0.0.1
        Subject Public Key Info:
            Public Key Algorithm: rsaEncryption
            RSA Public Key: (2048 bit)
                Modulus (2048 bit):
                    00:af:9a:2a:49:5d:b6:5e:d6:d5:49:11:ae:92:fe:
                    fb:03:a5:ca:ea:0e:80:ac:c3:26:76:4c:ec:2e:ec:
                    37:f9:a9:fe:be:ba:73:ba:48:44:77:f6:d5:98:16:
                    39:e2:2a:08:0d:5d:8c:94:26:0e:cc:5f:90:9a:01:
                    c5:5b:c3:b2:ef:32:f4:2a:74:72:7b:8d:e3:8f:f9:
                    9a:fc:97:13:4f:82:ea:b4:da:dc:3f:59:e2:d0:b3:
                    d4:9c:77:c6:71:ad:e8:9f:d1:23:20:11:30:98:33:
                    03:8a:8a:33:db:67:59:7f:dd:86:3b:2c:6a:82:03:
                    4a:a1:0a:9a:83:65:9d:07:63:8e:2a:93:ac:cb:80:
                    3c:e1:ee:33:e0:84:84:f4:d5:4a:b3:cd:dd:41:c4:
                    c2:48:04:a7:69:9c:3e:39:75:08:00:8c:2c:b4:fa:
                    6a:fa:20:06:58:b6:3b:ab:a4:b7:7a:39:92:93:91:
                    2b:ee:2c:aa:28:92:c9:a9:5b:28:6d:13:81:12:48:
                    fd:9e:2e:2a:f7:ad:e5:b5:d7:8f:c8:d0:d0:55:56:
                    db:04:c1:6d:fa:bb:ce:92:90:16:7b:5b:d7:6e:04:
                    72:d2:4b:69:59:81:e3:f7:e9:1a:18:59:11:76:e9:
                    36:bc:0b:82:12:c3:c1:3b:b5:75:da:45:b6:54:e6:
                    19:b1
                Exponent: 65537 (0x10001)
        X509v3 extensions:
            X509v3 Basic Constraints: critical
                CA:FALSE
            X509v3 Subject Key Identifier: 
                74:3C:07:E2:15:21:40:0D:D2:2E:A5:2D:8D:EB:19:80:5F:F7:6E:47
            X509v3 Authority Key Identifier: 
                keyid:F4:33:DD:16:66:E8:CE:EA:77:93:8D:8E:59:BD:53:56:D9:D9:D8:21

            X509v3 Extended Key Usage: 
                TLS Web Server Authentication, TLS Web Client Authentication
            X509v3 Subject Alternative Name: 
                DNS:*.this, DNS:*.*.this, DNS:*.*.*.this, IP Address:127.0.0.1
    Signature Algorithm: sha256WithRSAEncryption
        02:72:18:f0:7c:41:a0:09:9b:41:2f:e7:29:16:b7:f2:b1:79:
        0f:ca:72:33:21:bd:41:fe:a5:28:e2:ff:98:a9:f0:31:bd:fd:
        da:5c:7f:a6:e5:cb:c1:27:b0:87:f2:f1:cb:e3:6b:1b:4f:08:
        b4:48:5f:8a:e4:4a:8e:e8:1f:c0:eb:2d:cb:5a:d8:5c:98:3d:
        20:04:31:dd:1f:67:5b:24:36:c2:88:82:8a:55:7e:4f:93:a2:
        63:b3:a4:f2:a8:9f:f9:a7:3d:d5:48:87:9d:b4:c9:f8:61:72:
        ca:46:e8:91:fd:4a:3b:43:1e:a4:dd:08:48:08:a1:27:79:e2:
        1f:ac:0c:7f:48:f3:ea:a0:13:c0:d0:d5:9d:0a:1b:12:a5:01:
        00:7f:1f:2f:0a:72:08:04:ac:83:16:48:8a:23:44:0a:bb:31:
        3b:33:bc:d9:a2:f2:39:28:8d:d5:56:cb:97:0c:2d:43:6d:21:
        01:02:ff:cc:34:5b:21:ad:a0:11:66:c1:12:f6:bf:34:87:16:
        2a:32:1b:08:54:c3:ea:36:1e:ab:55:40:1f:8c:7a:dc:51:ec:
        1b:33:6c:6a:ff:1a:e5:d3:0b:fc:a4:94:03:b0:79:3e:14:1a:
        e0:2a:1c:8e:7f:d1:88:22:59:70:28:8f:8b:83:28:17:45:7f:
        76:0d:72:9d
-----BEGIN CERTIFICATE-----
MIIDnTCCAoWgAwIBAgIBATANBgkqhkiG9w0BAQsFADAeMRwwGgYDVQQDDBNRVUlD
IFNlcnZlciBSb290IENBMB4XDTE2MDUyOTEwNTYwN1oXDTE2MDYwMTEwNTYwN1ow
ZDELMAkGA1UEBhMCVVMxEzARBgNVBAgMCkNhbGlmb3JuaWExFjAUBgNVBAcMDU1v
dW50YWluIFZpZXcxFDASBgNVBAoMC1FVSUMgU2VydmVyMRIwEAYDVQQDDAkxMjcu
MC4wLjEwggEiMA0GCSqGSIb3DQEBAQUAA4IBDwAwggEKAoIBAQCvmipJXbZe1tVJ
Ea6S/vsDpcrqDoCswyZ2TOwu7Df5qf6+unO6SER39tWYFjniKggNXYyUJg7MX5Ca
AcVbw7LvMvQqdHJ7jeOP+Zr8lxNPguq02tw/WeLQs9Scd8Zxreif0SMgETCYMwOK
ijPbZ1l/3YY7LGqCA0qhCpqDZZ0HY44qk6zLgDzh7jPghIT01Uqzzd1BxMJIBKdp
nD45dQgAjCy0+mr6IAZYtjurpLd6OZKTkSvuLKooksmpWyhtE4ESSP2eLir3reW1
14/I0NBVVtsEwW36u86SkBZ7W9duBHLSS2lZgeP36RoYWRF26Ta8C4ISw8E7tXXa
RbZU5hmxAgMBAAGjgZ8wgZwwDAYDVR0TAQH/BAIwADAdBgNVHQ4EFgQUdDwH4hUh
QA3SLqUtjesZgF/3bkcwHwYDVR0jBBgwFoAU9DPdFmbozup3k42OWb1TVtnZ2CEw
HQYDVR0lBBYwFAYIKwYBBQUHAwEGCCsGAQUFBwMCMC0GA1UdEQQmMCSCBioudGhp
c4IIKi4qLnRoaXOCCiouKi4qLnRoaXOHBH8AAAEwDQYJKoZIhvcNAQELBQADggEB
AAJyGPB8QaAJm0Ev5ykWt/KxeQ/KcjMhvUH+pSji/5ip8DG9/dpcf6bly8EnsIfy
8cvjaxtPCLRIX4rkSo7oH8DrLcta2FyYPSAEMd0fZ1skNsKIgopVfk+TomOzpPKo
n/mnPdVIh520yfhhcspG6JH9SjtDHqTdCEgIoSd54h+sDH9I8+qgE8DQ1Z0KGxKl
AQB/Hy8KcggErIMWSIojRAq7MTszvNmi8jkojdVWy5cMLUNtIQEC/8w0WyGtoBFm
wRL2vzSHFioyGwhUw+o2HqtVQB+MetxR7BszbGr/GuXTC/yklAOweT4UGuAqHI5/
0YgiWXAoj4uDKBdFf3YNcp0=
-----END CERTIFICATE-----
