Certificate:
    Data:
        Version: 3 (0x2)
        Serial Number: 2 (0x2)
        Signature Algorithm: sha256WithRSAEncryption
        Issuer: CN=QUIC Server Root CA
        Validity
            Not Before: May 29 11:02:32 2016 GMT
            Not After : Jun  1 11:02:32 2016 GMT
        Subject: C=US, ST=California, L=Mountain View, O=QUIC Server, CN=*.this
        Subject Public Key Info:
            Public Key Algorithm: rsaEncryption
            RSA Public Key: (2048 bit)
                Modulus (2048 bit):
                    00:b4:8e:aa:7d:c8:59:26:51:68:22:81:47:2e:36:
                    c2:5f:09:e3:e5:3f:cb:06:ff:bc:67:b6:30:98:18:
                    02:ff:2a:90:26:3f:5e:11:58:c9:23:b4:86:58:87:
                    e0:d7:95:32:fd:40:34:15:ab:68:3a:bd:14:60:ec:
                    8f:49:6c:05:5b:dc:35:32:2b:40:18:18:6f:36:e6:
                    0c:30:a5:21:8b:39:84:5b:48:05:c7:54:49:b6:11:
                    a1:ce:91:b3:70:7e:8b:7c:a8:4d:8b:64:d7:4f:78:
                    d7:53:93:56:a5:ff:6e:f0:01:4c:f5:19:8a:5a:5a:
                    53:77:d7:3f:3a:a8:f3:58:3d:f7:59:94:67:c0:55:
                    93:0b:70:66:1d:2c:77:65:7b:c7:53:71:54:ad:b2:
                    6b:74:7d:0c:24:ff:63:b7:7d:8a:c3:af:3c:d3:90:
                    e3:f0:2f:7b:bf:40:1b:81:ee:5c:ed:18:d7:62:6d:
                    4c:47:df:f0:bd:ce:b2:92:c7:27:b7:b3:d6:9d:a8:
                    0a:6a:b6:7e:7a:7b:87:bd:2f:39:f1:02:0e:75:ca:
                    7f:60:60:ad:ab:36:a6:0d:91:21:cf:ea:27:ae:71:
                    e7:5b:12:89:8a:ba:fb:13:24:a1:2e:09:db:d1:43:
                    79:28:cb:90:7e:ca:2a:dc:ad:cd:22:f3:1c:3d:64:
                    35:81
                Exponent: 65537 (0x10001)
        X509v3 extensions:
            X509v3 Basic Constraints: critical
                CA:FALSE
            X509v3 Subject Key Identifier: 
                BF:A0:87:74:06:E0:F5:2D:B9:FB:80:FB:6F:B4:7B:8C:D8:AC:56:81
            X509v3 Authority Key Identifier: 
                keyid:F4:33:DD:16:66:E8:CE:EA:77:93:8D:8E:59:BD:53:56:D9:D9:D8:21

            X509v3 Extended Key Usage: 
                TLS Web Server Authentication, TLS Web Client Authentication
            X509v3 Subject Alternative Name: 
                DNS:*.this, DNS:*.*.this, DNS:*.*.*.this, IP Address:127.0.0.1
    Signature Algorithm: sha256WithRSAEncryption
        6a:da:0a:65:5a:d2:5e:16:95:e3:ef:0a:2f:fb:c7:13:af:8f:
        29:4d:61:21:fb:41:9a:ea:69:e0:39:00:8e:af:72:48:35:22:
        4f:23:7e:c1:73:4a:a8:a8:a9:ac:55:41:02:b2:80:c2:d6:0d:
        fd:a9:0b:29:ce:a9:a2:5b:31:0b:65:0a:0b:31:bb:a2:52:74:
        a1:e1:4b:b6:f8:24:e3:e0:53:6b:fa:8c:99:ca:93:5d:93:6b:
        20:ad:ca:0b:19:cf:5d:8b:32:a3:cd:8f:8c:ce:58:0b:47:08:
        2c:53:e4:26:e2:30:44:46:6f:3f:8b:bd:f0:97:98:cf:bd:b5:
        bf:74:cf:fb:a3:89:87:26:88:83:61:aa:0a:06:ab:c5:5d:40:
        a3:07:84:da:8d:6e:ce:22:55:ba:3a:41:82:64:6f:94:2f:fa:
        ed:4c:d4:13:13:84:9e:71:f4:a6:24:5f:1a:d6:7f:85:f1:b9:
        d5:c9:0d:63:0f:3b:78:5a:18:3b:1e:a2:4b:c2:3b:57:97:54:
        41:63:d8:4a:a1:ca:b1:c7:5f:81:8c:f3:7f:a7:00:29:d8:36:
        35:4e:36:65:4d:16:cb:70:b5:74:7d:e4:99:17:d7:21:77:1d:
        38:0a:9c:ba:47:d1:a2:38:a1:06:cf:c3:d2:2c:29:de:b0:a7:
        b8:94:7e:74
-----BEGIN CERTIFICATE-----
MIIDmjCCAoKgAwIBAgIBAjANBgkqhkiG9w0BAQsFADAeMRwwGgYDVQQDDBNRVUlD
IFNlcnZlciBSb290IENBMB4XDTE2MDUyOTExMDIzMloXDTE2MDYwMTExMDIzMlow
YTELMAkGA1UEBhMCVVMxEzARBgNVBAgMCkNhbGlmb3JuaWExFjAUBgNVBAcMDU1v
dW50YWluIFZpZXcxFDASBgNVBAoMC1FVSUMgU2VydmVyMQ8wDQYDVQQDDAYqLnRo
aXMwggEiMA0GCSqGSIb3DQEBAQUAA4IBDwAwggEKAoIBAQC0jqp9yFkmUWgigUcu
NsJfCePlP8sG/7xntjCYGAL/KpAmP14RWMkjtIZYh+DXlTL9QDQVq2g6vRRg7I9J
bAVb3DUyK0AYGG825gwwpSGLOYRbSAXHVEm2EaHOkbNwfot8qE2LZNdPeNdTk1al
/27wAUz1GYpaWlN31z86qPNYPfdZlGfAVZMLcGYdLHdle8dTcVStsmt0fQwk/2O3
fYrDrzzTkOPwL3u/QBuB7lztGNdibUxH3/C9zrKSxye3s9adqApqtn56e4e9Lznx
Ag51yn9gYK2rNqYNkSHP6ieucedbEomKuvsTJKEuCdvRQ3koy5B+yircrc0i8xw9
ZDWBAgMBAAGjgZ8wgZwwDAYDVR0TAQH/BAIwADAdBgNVHQ4EFgQUv6CHdAbg9S25
+4D7b7R7jNisVoEwHwYDVR0jBBgwFoAU9DPdFmbozup3k42OWb1TVtnZ2CEwHQYD
VR0lBBYwFAYIKwYBBQUHAwEGCCsGAQUFBwMCMC0GA1UdEQQmMCSCBioudGhpc4II
Ki4qLnRoaXOCCiouKi4qLnRoaXOHBH8AAAEwDQYJKoZIhvcNAQELBQADggEBAGra
CmVa0l4WlePvCi/7xxOvjylNYSH7QZrqaeA5AI6vckg1Ik8jfsFzSqioqaxVQQKy
gMLWDf2pCynOqaJbMQtlCgsxu6JSdKHhS7b4JOPgU2v6jJnKk12TayCtygsZz12L
MqPNj4zOWAtHCCxT5CbiMERGbz+LvfCXmM+9tb90z/ujiYcmiINhqgoGq8VdQKMH
hNqNbs4iVbo6QYJkb5Qv+u1M1BMThJ5x9KYkXxrWf4XxudXJDWMPO3haGDseokvC
O1eXVEFj2EqhyrHHX4GM83+nACnYNjVONmVNFstwtXR95JkX1yF3HTgKnLpH0aI4
oQbPw9IsKd6wp7iUfnQ=
-----END CERTIFICATE-----
