Certificate:
    Data:
        Version: 3 (0x2)
        Serial Number: 3 (0x3)
        Signature Algorithm: sha256WithRSAEncryption
        Issuer: CN=QUIC Server Root CA
        Validity
            Not Before: May 29 11:04:27 2016 GMT
            Not After : Jun  1 11:04:27 2016 GMT
        Subject: C=US, ST=California, L=Mountain View, O=QUIC Server, CN=a.this
        Subject Public Key Info:
            Public Key Algorithm: rsaEncryption
            RSA Public Key: (2048 bit)
                Modulus (2048 bit):
                    00:b0:a5:28:d7:d8:63:1b:90:aa:79:41:c8:d5:70:
                    15:ae:b6:4a:e2:6f:b4:34:a7:ba:9c:f3:fe:d4:3e:
                    5e:e6:a9:e3:f7:21:1b:07:dc:f4:2e:40:e5:12:61:
                    41:d2:78:be:78:f5:21:3f:c7:29:3f:17:38:46:54:
                    b0:eb:b7:09:ca:56:2f:af:f3:34:31:51:56:da:b2:
                    ef:b1:cc:cc:b9:85:49:ff:4b:32:72:bc:48:5b:15:
                    4d:3f:01:2b:22:4c:fd:3e:1d:84:f1:11:17:c4:a7:
                    b9:a7:55:27:7f:24:75:64:15:4b:61:8e:02:0b:a7:
                    18:fe:8f:ab:13:52:fb:1e:38:b4:3f:55:84:2c:30:
                    d9:d1:32:27:f4:be:40:76:54:a1:af:e8:92:af:52:
                    ef:db:c6:36:03:29:bf:76:fb:84:89:2e:ce:a4:b7:
                    ef:57:b4:ae:84:71:79:b5:69:61:f8:96:e0:05:2a:
                    e7:69:48:62:3b:0b:5c:0c:11:89:c7:b4:d1:9e:e2:
                    11:44:0e:1f:b0:00:80:f4:bf:89:f1:15:9d:bc:a8:
                    3c:df:a5:dc:db:09:55:8c:9f:b7:32:62:9c:ff:39:
                    d9:d4:71:ed:bd:11:ad:bf:cd:ee:3a:2d:83:ab:85:
                    45:d5:13:4c:bf:b8:ce:ea:98:dc:31:71:17:b7:86:
                    11:71
                Exponent: 65537 (0x10001)
        X509v3 extensions:
            X509v3 Basic Constraints: critical
                CA:FALSE
            X509v3 Subject Key Identifier: 
                F3:D7:EA:8F:4E:21:96:DF:36:11:B0:73:AF:E6:E0:D1:AF:8F:7C:BD
            X509v3 Authority Key Identifier: 
                keyid:F4:33:DD:16:66:E8:CE:EA:77:93:8D:8E:59:BD:53:56:D9:D9:D8:21

            X509v3 Extended Key Usage: 
                TLS Web Server Authentication, TLS Web Client Authentication
            X509v3 Subject Alternative Name: 
                DNS:*.a.this, DNS:*.*.a.this, DNS:*.*.*.a.this, IP Address:127.0.0.1
    Signature Algorithm: sha256WithRSAEncryption
        27:a7:de:2a:28:ad:84:80:58:d8:9d:63:0f:e5:a1:c7:47:dc:
        b4:dc:66:ca:82:a5:33:15:91:ca:f3:ba:49:20:46:d1:b3:38:
        ee:f3:1f:2f:d7:9e:2d:96:fd:1f:e0:1e:fd:6a:7e:ee:d9:fa:
        03:4e:8c:0d:eb:7e:d0:f0:31:77:1c:e4:0a:12:c0:e9:58:d0:
        5c:dc:0e:3c:57:63:32:42:e2:19:99:13:f6:ab:38:7c:55:6b:
        1f:c2:6f:2b:af:04:ec:42:ed:7b:13:46:68:b5:3c:8c:ea:de:
        aa:8d:0b:c4:f6:12:ea:49:e4:88:44:18:50:e4:d6:d6:70:4b:
        dc:c3:df:3a:32:0e:9f:f7:34:52:5f:0e:81:7b:c6:aa:4b:ef:
        38:38:fc:5c:8d:c9:97:a8:90:d3:83:38:34:c0:6d:0f:c9:4d:
        1e:5e:ee:61:e2:82:84:c5:22:fc:14:d8:9e:96:1f:9a:87:b0:
        1e:0b:a8:12:11:92:85:2e:db:46:17:15:15:af:b7:a7:2a:d0:
        90:68:5a:25:92:91:4a:42:68:4e:02:90:74:0c:d5:91:9f:ef:
        88:a6:33:2b:bf:f8:65:f1:77:65:14:08:73:4c:9f:d6:db:01:
        36:26:6f:a7:c0:bb:46:37:02:7b:c2:eb:cd:db:23:4e:6f:6d:
        67:88:8e:ad
-----BEGIN CERTIFICATE-----
MIIDoDCCAoigAwIBAgIBAzANBgkqhkiG9w0BAQsFADAeMRwwGgYDVQQDDBNRVUlD
IFNlcnZlciBSb290IENBMB4XDTE2MDUyOTExMDQyN1oXDTE2MDYwMTExMDQyN1ow
YTELMAkGA1UEBhMCVVMxEzARBgNVBAgMCkNhbGlmb3JuaWExFjAUBgNVBAcMDU1v
dW50YWluIFZpZXcxFDASBgNVBAoMC1FVSUMgU2VydmVyMQ8wDQYDVQQDDAZhLnRo
aXMwggEiMA0GCSqGSIb3DQEBAQUAA4IBDwAwggEKAoIBAQCwpSjX2GMbkKp5QcjV
cBWutkrib7Q0p7qc8/7UPl7mqeP3IRsH3PQuQOUSYUHSeL549SE/xyk/FzhGVLDr
twnKVi+v8zQxUVbasu+xzMy5hUn/SzJyvEhbFU0/ASsiTP0+HYTxERfEp7mnVSd/
JHVkFUthjgILpxj+j6sTUvseOLQ/VYQsMNnRMif0vkB2VKGv6JKvUu/bxjYDKb92
+4SJLs6kt+9XtK6EcXm1aWH4luAFKudpSGI7C1wMEYnHtNGe4hFEDh+wAID0v4nx
FZ28qDzfpdzbCVWMn7cyYpz/OdnUce29Ea2/ze46LYOrhUXVE0y/uM7qmNwxcRe3
hhFxAgMBAAGjgaUwgaIwDAYDVR0TAQH/BAIwADAdBgNVHQ4EFgQU89fqj04hlt82
EbBzr+bg0a+PfL0wHwYDVR0jBBgwFoAU9DPdFmbozup3k42OWb1TVtnZ2CEwHQYD
VR0lBBYwFAYIKwYBBQUHAwEGCCsGAQUFBwMCMDMGA1UdEQQsMCqCCCouYS50aGlz
ggoqLiouYS50aGlzggwqLiouKi5hLnRoaXOHBH8AAAEwDQYJKoZIhvcNAQELBQAD
ggEBACen3ioorYSAWNidYw/locdH3LTcZsqCpTMVkcrzukkgRtGzOO7zHy/Xni2W
/R/gHv1qfu7Z+gNOjA3rftDwMXcc5AoSwOlY0FzcDjxXYzJC4hmZE/arOHxVax/C
byuvBOxC7XsTRmi1PIzq3qqNC8T2EupJ5IhEGFDk1tZwS9zD3zoyDp/3NFJfDoF7
xqpL7zg4/FyNyZeokNODODTAbQ/JTR5e7mHigoTFIvwU2J6WH5qHsB4LqBIRkoUu
20YXFRWvt6cq0JBoWiWSkUpCaE4CkHQM1ZGf74imMyu/+GXxd2UUCHNMn9bbATYm
b6fAu0Y3AnvC683bI05vbWeIjq0=
-----END CERTIFICATE-----
