Certificate:
    Data:
        Version: 3 (0x2)
        Serial Number: 4 (0x4)
        Signature Algorithm: sha256WithRSAEncryption
        Issuer: CN=QUIC Server Root CA
        Validity
            Not Before: May 29 11:07:43 2016 GMT
            Not After : Jun  1 11:07:43 2016 GMT
        Subject: C=US, ST=California, L=Mountain View, O=QUIC Server, CN=a.this
        Subject Public Key Info:
            Public Key Algorithm: rsaEncryption
            RSA Public Key: (2048 bit)
                Modulus (2048 bit):
                    00:ac:c8:6d:8e:30:3e:02:e6:12:b2:59:4e:60:c4:
                    3d:34:80:76:72:4f:5a:e5:ed:b2:0b:08:8f:46:df:
                    e9:ba:bb:ad:84:e1:80:b0:64:e4:84:34:b8:80:55:
                    53:02:ae:22:98:f4:44:b1:39:0e:f2:29:2e:00:e9:
                    f0:f6:4c:67:35:90:9f:32:4c:36:06:1f:25:0f:7b:
                    93:87:4c:28:61:66:61:c5:d7:ff:ef:b8:1a:13:6b:
                    05:b4:cb:e1:33:d0:1c:1f:85:fd:5a:8d:cd:c4:61:
                    22:ca:b4:a7:46:7b:02:84:1e:e6:1d:95:a7:70:f3:
                    ab:ea:30:ee:53:80:66:b7:2e:6e:3e:01:58:0e:65:
                    90:2e:a9:80:91:b2:60:0f:bb:a2:71:d8:f0:99:ec:
                    3c:60:b0:e5:1a:be:1c:b1:ea:05:0b:07:6a:91:84:
                    31:26:3d:fb:2a:99:46:88:54:a6:6c:0a:40:77:43:
                    d4:bf:75:b3:25:ce:46:21:77:ef:85:a8:40:dc:b0:
                    4a:07:71:c5:f5:1d:52:e6:b7:89:cb:9d:96:7d:a0:
                    44:ef:4b:81:da:35:1e:e4:31:71:a6:de:16:38:79:
                    a9:a3:f5:fe:1c:29:4d:e5:e8:55:8c:95:ef:b9:98:
                    70:4c:7f:0e:05:75:08:d5:6c:4c:95:48:52:10:3e:
                    26:0b
                Exponent: 65537 (0x10001)
        X509v3 extensions:
            X509v3 Basic Constraints: critical
                CA:FALSE
            X509v3 Subject Key Identifier: 
                1F:0E:6F:EB:0A:66:9E:3B:9B:13:D3:59:15:B4:51:02:59:9E:80:AE
            X509v3 Authority Key Identifier: 
                keyid:F4:33:DD:16:66:E8:CE:EA:77:93:8D:8E:59:BD:53:56:D9:D9:D8:21

            X509v3 Extended Key Usage: 
                TLS Web Server Authentication, TLS Web Client Authentication
            X509v3 Subject Alternative Name: 
                DNS:*.a.this, DNS:*.*.a.this, DNS:*.*.*.a.this, IP Address:127.0.0.1
    Signature Algorithm: sha256WithRSAEncryption
        a3:c2:7f:c2:4d:8d:69:04:9d:52:b2:d3:7f:6f:40:72:23:60:
        5a:00:dc:4b:59:9b:6e:f1:c8:e7:56:74:46:44:b1:88:14:7e:
        66:0f:d2:7d:27:54:d5:92:7a:58:21:98:58:81:1c:11:cb:f9:
        ab:89:0d:b4:11:e9:22:fc:bd:36:f5:bb:84:b8:82:db:01:95:
        6c:f3:3a:6e:f6:4f:f2:67:3f:4b:00:a0:47:80:d2:08:7b:06:
        13:7d:c9:52:ba:c5:d0:49:1b:70:ed:c9:61:b7:9b:fe:c7:d0:
        96:0e:07:14:b5:63:ed:7d:cd:80:16:d3:46:9e:c9:2c:aa:f8:
        dc:70:0c:d2:b6:53:74:be:be:65:da:ff:a0:6e:a8:f5:ec:eb:
        ca:a7:0c:3a:9c:d1:09:4a:02:aa:95:53:89:d1:02:46:5f:a2:
        90:0f:b6:74:8d:4c:68:e0:d6:2b:59:f3:6f:10:33:10:b4:10:
        e5:36:63:8b:d7:63:fd:98:38:c0:a2:77:21:cc:a5:e5:88:3c:
        39:a0:98:83:bf:95:f4:df:3c:7b:a0:a4:c2:f1:be:32:07:a2:
        8a:e0:18:60:fe:24:bf:d3:59:a1:8b:8e:37:73:73:5a:08:2f:
        7a:8a:ae:c2:16:3b:0a:5d:bc:8c:66:d0:49:1d:54:64:df:0f:
        9d:4c:db:e9
-----BEGIN CERTIFICATE-----
MIIDoDCCAoigAwIBAgIBBDANBgkqhkiG9w0BAQsFADAeMRwwGgYDVQQDDBNRVUlD
IFNlcnZlciBSb290IENBMB4XDTE2MDUyOTExMDc0M1oXDTE2MDYwMTExMDc0M1ow
YTELMAkGA1UEBhMCVVMxEzARBgNVBAgMCkNhbGlmb3JuaWExFjAUBgNVBAcMDU1v
dW50YWluIFZpZXcxFDASBgNVBAoMC1FVSUMgU2VydmVyMQ8wDQYDVQQDDAZhLnRo
aXMwggEiMA0GCSqGSIb3DQEBAQUAA4IBDwAwggEKAoIBAQCsyG2OMD4C5hKyWU5g
xD00gHZyT1rl7bILCI9G3+m6u62E4YCwZOSENLiAVVMCriKY9ESxOQ7yKS4A6fD2
TGc1kJ8yTDYGHyUPe5OHTChhZmHF1//vuBoTawW0y+Ez0Bwfhf1ajc3EYSLKtKdG
ewKEHuYdladw86vqMO5TgGa3Lm4+AVgOZZAuqYCRsmAPu6Jx2PCZ7DxgsOUavhyx
6gULB2qRhDEmPfsqmUaIVKZsCkB3Q9S/dbMlzkYhd++FqEDcsEoHccX1HVLmt4nL
nZZ9oETvS4HaNR7kMXGm3hY4eamj9f4cKU3l6FWMle+5mHBMfw4FdQjVbEyVSFIQ
PiYLAgMBAAGjgaUwgaIwDAYDVR0TAQH/BAIwADAdBgNVHQ4EFgQUHw5v6wpmnjub
E9NZFbRRAlmegK4wHwYDVR0jBBgwFoAU9DPdFmbozup3k42OWb1TVtnZ2CEwHQYD
VR0lBBYwFAYIKwYBBQUHAwEGCCsGAQUFBwMCMDMGA1UdEQQsMCqCCCouYS50aGlz
ggoqLiouYS50aGlzggwqLiouKi5hLnRoaXOHBH8AAAEwDQYJKoZIhvcNAQELBQAD
ggEBAKPCf8JNjWkEnVKy039vQHIjYFoA3EtZm27xyOdWdEZEsYgUfmYP0n0nVNWS
elghmFiBHBHL+auJDbQR6SL8vTb1u4S4gtsBlWzzOm72T/JnP0sAoEeA0gh7BhN9
yVK6xdBJG3DtyWG3m/7H0JYOBxS1Y+19zYAW00aeySyq+NxwDNK2U3S+vmXa/6Bu
qPXs68qnDDqc0QlKAqqVU4nRAkZfopAPtnSNTGjg1itZ828QMxC0EOU2Y4vXY/2Y
OMCidyHMpeWIPDmgmIO/lfTfPHugpMLxvjIHoorgGGD+JL/TWaGLjjdzc1oIL3qK
rsIWOwpdvIxm0EkdVGTfD51M2+k=
-----END CERTIFICATE-----
