Certificate:
    Data:
        Version: 3 (0x2)
        Serial Number: 5 (0x5)
        Signature Algorithm: sha256WithRSAEncryption
        Issuer: CN=QUIC Server Root CA
        Validity
            Not Before: May 29 11:07:52 2016 GMT
            Not After : Jun  1 11:07:52 2016 GMT
        Subject: C=US, ST=California, L=Mountain View, O=QUIC Server, CN=a.this
        Subject Public Key Info:
            Public Key Algorithm: rsaEncryption
            RSA Public Key: (2048 bit)
                Modulus (2048 bit):
                    00:ac:e1:79:de:c6:54:61:43:a1:2d:54:6b:6d:b5:
                    3e:ea:1e:a9:41:7f:eb:bd:ff:6a:b9:f9:ea:83:03:
                    27:3f:0d:a8:99:82:af:8e:cb:af:3f:7b:68:f9:66:
                    93:e0:fe:69:2d:ca:70:6b:d6:42:e6:52:b0:cf:9c:
                    e2:ba:0e:db:38:f0:8e:66:d3:5b:b1:28:5e:2a:24:
                    64:96:88:25:14:5c:8a:1f:32:bf:a5:33:9b:96:28:
                    1d:48:85:3c:c7:08:f6:50:c2:47:38:55:f7:08:96:
                    b7:14:1d:62:17:54:50:c5:7c:ee:05:a8:63:d5:32:
                    25:97:29:94:90:9f:06:a8:74:83:18:85:1b:0b:5a:
                    30:75:a5:36:67:42:4f:51:f1:28:ea:7b:77:cb:e1:
                    44:36:47:fb:fc:b1:19:6b:30:73:82:e7:9e:95:7e:
                    19:df:21:7c:bd:ff:15:b6:f7:62:04:de:60:05:8a:
                    b3:f3:7c:35:cf:14:c0:e4:75:1f:66:48:82:f9:29:
                    af:0e:89:ff:5f:1a:0d:e9:19:e3:d2:91:15:ee:7c:
                    a8:47:ad:5d:7c:cf:6b:40:7e:bc:5e:44:99:6d:c1:
                    50:3f:4f:44:e6:31:fb:26:63:db:bd:b3:20:0e:1c:
                    79:14:f6:b8:3f:f1:43:c2:2f:18:df:0b:b3:02:58:
                    57:cb
                Exponent: 65537 (0x10001)
        X509v3 extensions:
            X509v3 Basic Constraints: critical
                CA:FALSE
            X509v3 Subject Key Identifier: 
                91:6D:1E:85:97:C5:DB:C6:CE:E0:06:00:E9:A0:99:C1:BE:AE:EB:09
            X509v3 Authority Key Identifier: 
                keyid:F4:33:DD:16:66:E8:CE:EA:77:93:8D:8E:59:BD:53:56:D9:D9:D8:21

            X509v3 Extended Key Usage: 
                TLS Web Server Authentication, TLS Web Client Authentication
            X509v3 Subject Alternative Name: 
                DNS:a.this, DNS:*.a.this, DNS:*.*.a.this, DNS:*.*.*.a.this, IP Address:127.0.0.1
    Signature Algorithm: sha256WithRSAEncryption
        53:7d:03:61:ff:f0:15:9a:08:71:23:19:3b:e4:5a:e7:e5:bd:
        d4:fd:89:57:20:7a:38:16:bf:66:89:8a:2d:a4:c8:e9:4e:a3:
        74:f3:f5:fc:4f:26:ac:02:fe:d8:e0:a6:0e:f7:e3:9a:dd:de:
        73:04:d7:17:6a:0f:14:c8:22:b3:8d:e8:07:1b:9f:cb:b2:2c:
        9a:94:88:71:22:4c:9e:ff:fd:97:0f:bb:b3:c3:96:3b:76:54:
        aa:38:09:a2:8c:80:bd:87:b3:27:40:7a:97:d1:a7:3a:87:ca:
        8a:b6:d8:b1:e5:ed:e3:a6:1d:26:c4:9c:8f:40:81:9d:c0:bb:
        a9:f8:df:b0:2f:5a:0e:d8:77:95:50:b6:6c:97:a6:91:c5:63:
        3b:d2:67:fd:f9:1f:bf:02:c4:1a:97:73:fa:45:66:a8:87:31:
        e4:25:b3:d0:c1:e0:aa:23:8e:da:94:6e:2e:aa:67:ef:0a:21:
        2c:10:ea:c6:88:9e:63:cb:0f:1c:55:68:1c:fc:ec:3e:f2:dc:
        25:14:11:eb:76:94:65:fd:55:99:22:d1:f1:84:4f:ec:1d:8e:
        37:fe:14:69:17:b1:f3:be:6f:fc:ec:15:e9:78:62:78:e1:b0:
        98:e3:fa:bf:39:04:d6:c8:81:8a:6c:f0:2d:cf:db:58:f5:12:
        93:f0:22:78
-----BEGIN CERTIFICATE-----
MIIDqDCCApCgAwIBAgIBBTANBgkqhkiG9w0BAQsFADAeMRwwGgYDVQQDDBNRVUlD
IFNlcnZlciBSb290IENBMB4XDTE2MDUyOTExMDc1MloXDTE2MDYwMTExMDc1Mlow
YTELMAkGA1UEBhMCVVMxEzARBgNVBAgMCkNhbGlmb3JuaWExFjAUBgNVBAcMDU1v
dW50YWluIFZpZXcxFDASBgNVBAoMC1FVSUMgU2VydmVyMQ8wDQYDVQQDDAZhLnRo
aXMwggEiMA0GCSqGSIb3DQEBAQUAA4IBDwAwggEKAoIBAQCs4XnexlRhQ6EtVGtt
tT7qHqlBf+u9/2q5+eqDAyc/DaiZgq+Oy68/e2j5ZpPg/mktynBr1kLmUrDPnOK6
Dts48I5m01uxKF4qJGSWiCUUXIofMr+lM5uWKB1IhTzHCPZQwkc4VfcIlrcUHWIX
VFDFfO4FqGPVMiWXKZSQnwaodIMYhRsLWjB1pTZnQk9R8Sjqe3fL4UQ2R/v8sRlr
MHOC556VfhnfIXy9/xW292IE3mAFirPzfDXPFMDkdR9mSIL5Ka8Oif9fGg3pGePS
kRXufKhHrV18z2tAfrxeRJltwVA/T0TmMfsmY9u9syAOHHkU9rg/8UPCLxjfC7MC
WFfLAgMBAAGjga0wgaowDAYDVR0TAQH/BAIwADAdBgNVHQ4EFgQUkW0ehZfF28bO
4AYA6aCZwb6u6wkwHwYDVR0jBBgwFoAU9DPdFmbozup3k42OWb1TVtnZ2CEwHQYD
VR0lBBYwFAYIKwYBBQUHAwEGCCsGAQUFBwMCMDsGA1UdEQQ0MDKCBmEudGhpc4II
Ki5hLnRoaXOCCiouKi5hLnRoaXOCDCouKi4qLmEudGhpc4cEfwAAATANBgkqhkiG
9w0BAQsFAAOCAQEAU30DYf/wFZoIcSMZO+Ra5+W91P2JVyB6OBa/ZomKLaTI6U6j
dPP1/E8mrAL+2OCmDvfjmt3ecwTXF2oPFMgis43oBxufy7IsmpSIcSJMnv/9lw+7
s8OWO3ZUqjgJooyAvYezJ0B6l9GnOofKirbYseXt46YdJsScj0CBncC7qfjfsC9a
Dth3lVC2bJemkcVjO9Jn/fkfvwLEGpdz+kVmqIcx5CWz0MHgqiOO2pRuLqpn7woh
LBDqxoieY8sPHFVoHPzsPvLcJRQR63aUZf1VmSLR8YRP7B2ON/4UaRex875v/OwV
6XhieOGwmOP6vzkE1siBimzwLc/bWPUSk/AieA==
-----END CERTIFICATE-----
