Certificate:
    Data:
        Version: 3 (0x2)
        Serial Number: 6 (0x6)
        Signature Algorithm: sha256WithRSAEncryption
        Issuer: CN=QUIC Server Root CA
        Validity
            Not Before: May 29 11:24:30 2016 GMT
            Not After : Jun  1 11:24:30 2016 GMT
        Subject: C=US, ST=California, L=Mountain View, O=QUIC Server, CN=a.this
        Subject Public Key Info:
            Public Key Algorithm: rsaEncryption
            RSA Public Key: (2048 bit)
                Modulus (2048 bit):
                    00:bf:93:68:d0:b8:85:ba:af:73:69:77:eb:70:f1:
                    aa:53:d7:ce:23:72:75:0d:e8:37:d3:d0:85:96:48:
                    5c:9b:5f:57:5a:5f:9b:9e:b8:a8:c6:6b:1e:55:d0:
                    65:04:13:29:01:2d:37:b7:3a:7e:00:66:a8:19:db:
                    3c:88:39:9b:d0:8d:c2:51:85:c4:9c:59:41:0c:ee:
                    b0:ee:7e:e0:a5:14:f1:cd:94:ab:ac:0c:8b:f0:90:
                    4a:4a:6a:a6:1a:aa:ac:85:a1:99:26:5e:13:3b:22:
                    23:fb:61:70:ce:30:96:6a:4f:60:b0:e6:fe:e4:2a:
                    99:e3:81:44:05:13:0d:a8:89:5c:75:ce:38:1f:69:
                    ba:a1:77:e5:ca:70:6d:41:33:bd:80:ce:04:42:18:
                    8c:31:4f:3e:0d:8f:86:bb:1b:c8:2f:ee:7a:d3:ab:
                    77:45:57:36:5a:fc:59:5b:fa:15:08:db:cb:30:50:
                    78:6a:26:b6:27:10:ff:77:03:fe:88:c9:4a:0f:04:
                    05:f7:8e:67:7b:8e:7d:5f:15:84:92:72:cf:aa:3e:
                    6d:2d:1b:0c:ff:d2:c2:d1:b7:d7:e5:0e:5b:8f:6a:
                    ec:0d:8f:18:d2:b9:ab:4e:34:5f:ac:6d:f1:2a:3e:
                    93:84:e3:b1:31:be:be:7e:f4:26:9d:f8:7e:98:df:
                    d2:d5
                Exponent: 65537 (0x10001)
        X509v3 extensions:
            X509v3 Basic Constraints: critical
                CA:FALSE
            X509v3 Subject Key Identifier: 
                4B:33:C1:3E:A7:10:3F:D1:B2:F7:32:50:CE:13:6A:D9:D2:81:87:B1
            X509v3 Authority Key Identifier: 
                keyid:F4:33:DD:16:66:E8:CE:EA:77:93:8D:8E:59:BD:53:56:D9:D9:D8:21

            X509v3 Extended Key Usage: 
                TLS Web Server Authentication, TLS Web Client Authentication
            X509v3 Subject Alternative Name: 
                DNS:a.this, DNS:clien.net.this, DNS:*.clien.net.this, DNS:*.a.this, DNS:*.*.a.this, DNS:*.*.*.a.this, IP Address:127.0.0.1
    Signature Algorithm: sha256WithRSAEncryption
        2f:07:47:94:eb:ea:7a:e1:0c:ad:47:48:f2:b4:71:88:c0:68:
        1c:62:5b:34:bc:cc:7d:21:c9:36:57:27:16:66:e2:ae:0a:1e:
        bd:ff:58:c1:31:d6:a0:11:93:bc:fc:9a:90:c5:71:eb:99:5d:
        5f:4f:ae:67:6b:87:63:04:ed:ca:e0:8e:51:68:da:9e:e0:06:
        a2:26:79:65:62:cd:55:0f:41:4b:ab:9a:4d:09:71:a7:3b:de:
        56:21:fb:91:28:ff:95:b6:d2:56:9a:e4:aa:f9:15:97:09:c0:
        bb:4f:59:cc:30:d6:6d:d2:8b:3a:ee:70:0e:ca:21:cd:93:07:
        dd:50:86:b3:ae:9c:ae:8a:78:51:ae:52:80:21:2f:05:86:1b:
        35:e7:2a:b2:26:13:7b:b2:43:68:27:01:1f:3d:dd:f1:de:d3:
        84:cc:ac:b2:bb:03:d4:95:d7:92:3c:e9:3f:26:60:05:02:83:
        97:b0:d5:cd:8e:ef:e0:d7:14:19:e4:cb:36:90:e5:4a:60:35:
        ca:25:60:19:6e:7c:8f:52:45:97:4d:31:60:f0:b6:cd:30:36:
        a7:71:70:d1:51:d2:0e:1f:92:98:a3:4e:d3:0e:34:d5:e4:b9:
        56:c7:f0:54:45:ca:4e:1a:df:14:0c:d9:24:6f:3c:91:ba:40:
        de:a4:bd:61
-----BEGIN CERTIFICATE-----
MIIDyjCCArKgAwIBAgIBBjANBgkqhkiG9w0BAQsFADAeMRwwGgYDVQQDDBNRVUlD
IFNlcnZlciBSb290IENBMB4XDTE2MDUyOTExMjQzMFoXDTE2MDYwMTExMjQzMFow
YTELMAkGA1UEBhMCVVMxEzARBgNVBAgMCkNhbGlmb3JuaWExFjAUBgNVBAcMDU1v
dW50YWluIFZpZXcxFDASBgNVBAoMC1FVSUMgU2VydmVyMQ8wDQYDVQQDDAZhLnRo
aXMwggEiMA0GCSqGSIb3DQEBAQUAA4IBDwAwggEKAoIBAQC/k2jQuIW6r3Npd+tw
8apT184jcnUN6DfT0IWWSFybX1daX5ueuKjGax5V0GUEEykBLTe3On4AZqgZ2zyI
OZvQjcJRhcScWUEM7rDufuClFPHNlKusDIvwkEpKaqYaqqyFoZkmXhM7IiP7YXDO
MJZqT2Cw5v7kKpnjgUQFEw2oiVx1zjgfabqhd+XKcG1BM72AzgRCGIwxTz4Nj4a7
G8gv7nrTq3dFVzZa/Flb+hUI28swUHhqJrYnEP93A/6IyUoPBAX3jmd7jn1fFYSS
cs+qPm0tGwz/0sLRt9flDluPauwNjxjSuatONF+sbfEqPpOE47Exvr5+9Cad+H6Y
39LVAgMBAAGjgc8wgcwwDAYDVR0TAQH/BAIwADAdBgNVHQ4EFgQUSzPBPqcQP9Gy
9zJQzhNq2dKBh7EwHwYDVR0jBBgwFoAU9DPdFmbozup3k42OWb1TVtnZ2CEwHQYD
VR0lBBYwFAYIKwYBBQUHAwEGCCsGAQUFBwMCMF0GA1UdEQRWMFSCBmEudGhpc4IO
Y2xpZW4ubmV0LnRoaXOCECouY2xpZW4ubmV0LnRoaXOCCCouYS50aGlzggoqLiou
YS50aGlzggwqLiouKi5hLnRoaXOHBH8AAAEwDQYJKoZIhvcNAQELBQADggEBAC8H
R5Tr6nrhDK1HSPK0cYjAaBxiWzS8zH0hyTZXJxZm4q4KHr3/WMEx1qARk7z8mpDF
ceuZXV9Prmdrh2ME7crgjlFo2p7gBqImeWVizVUPQUurmk0Jcac73lYh+5Eo/5W2
0laa5Kr5FZcJwLtPWcww1m3SizrucA7KIc2TB91QhrOunK6KeFGuUoAhLwWGGzXn
KrImE3uyQ2gnAR893fHe04TMrLK7A9SV15I86T8mYAUCg5ew1c2O7+DXFBnkyzaQ
5UpgNcolYBlufI9SRZdNMWDwts0wNqdxcNFR0g4fkpijTtMONNXkuVbH8FRFyk4a
3xQM2SRvPJG6QN6kvWE=
-----END CERTIFICATE-----
