Certificate:
    Data:
        Version: 3 (0x2)
        Serial Number: 7 (0x7)
        Signature Algorithm: sha256WithRSAEncryption
        Issuer: CN=QUIC Server Root CA
        Validity
            Not Before: May 29 11:57:02 2016 GMT
            Not After : Jun  1 11:57:02 2016 GMT
        Subject: C=US, ST=California, L=Mountain View, O=QUIC Server, CN=a.this
        Subject Public Key Info:
            Public Key Algorithm: rsaEncryption
            RSA Public Key: (2048 bit)
                Modulus (2048 bit):
                    00:e4:b8:b4:f3:8f:2b:1c:ee:1c:2a:62:9d:8b:62:
                    ed:79:90:b2:08:64:e6:d0:98:35:f1:aa:78:7f:64:
                    89:c4:a1:39:d7:64:29:0c:b9:86:66:11:08:20:bf:
                    7d:93:b8:f9:3d:3a:ad:14:d1:61:f7:ce:3c:40:ac:
                    5e:77:a0:1f:b7:18:8c:c1:a7:52:b7:f0:56:67:02:
                    5e:b6:7b:a9:84:a6:81:1e:b7:0f:29:87:51:d8:ef:
                    66:a8:5b:86:fb:d6:43:d0:df:08:3f:49:fb:d2:4c:
                    08:13:f1:66:be:e5:fd:f6:58:98:06:3f:24:c4:21:
                    4d:fe:a6:cc:df:2f:39:53:a2:d9:d5:35:16:23:87:
                    de:ed:73:5c:2e:e3:e5:5a:5e:04:bd:f6:16:38:58:
                    c0:4a:44:10:8a:24:39:7c:56:59:bd:53:32:1b:0b:
                    82:96:f0:9a:05:49:1a:04:22:db:01:3c:df:23:d5:
                    73:8d:16:09:ef:07:1c:37:11:74:e7:74:bc:4b:6c:
                    b6:55:14:eb:3c:fa:35:46:3d:37:aa:ff:11:65:2b:
                    1c:7d:b7:e1:40:aa:89:5b:21:f7:e0:98:4e:1c:61:
                    95:74:99:8e:be:86:a4:fc:4c:a0:78:5e:a1:a2:8f:
                    6f:4c:47:e5:ec:b5:b7:53:1e:c1:b0:6f:98:57:eb:
                    41:7b
                Exponent: 65537 (0x10001)
        X509v3 extensions:
            X509v3 Basic Constraints: critical
                CA:FALSE
            X509v3 Subject Key Identifier: 
                01:A0:6E:31:F0:76:93:DC:33:ED:07:9D:BA:FA:BE:39:80:BB:CA:45
            X509v3 Authority Key Identifier: 
                keyid:F4:33:DD:16:66:E8:CE:EA:77:93:8D:8E:59:BD:53:56:D9:D9:D8:21

            X509v3 Extended Key Usage: 
                TLS Web Server Authentication, TLS Web Client Authentication
            X509v3 Subject Alternative Name: 
                DNS:*.cloudfront.net, DNS:*.openx.net, DNS:*.amazonaws.com, DNS:*.redditstatic.com, DNS:*.casalemedia.com, DNS:*.cnzz.com, DNS:*.apple.com, DNS:*.facebook.com, DNS:*.imgur.com, DNS:*.redditmedia.com, DNS:*.reddit.com, DNS:*.mathtag.com, DNS:*.googleapis.com, DNS:*.flickr.com, DNS:*.scorecardresearch.com, DNS:*.ssl-images-amazon.com, DNS:*.ggpht.com, DNS:*.amazon.com, DNS:*.adaptv.advertising.com, DNS:*.ads.yahoo.com, DNS:*.btrll.com, DNS:*.facebook.net, DNS:*.chinadaily.com.cn, DNS:*.twimg.com, DNS:*.profile.cdg50.cloudfront.net, DNS:*.ytimg.com, DNS:*.ebaystatic.com, DNS:*.yimg.com, DNS:*.com, DNS:*.wrating.com, DNS:*.amazon-adsystem.com, DNS:*.main.ebayrtm.com, DNS:*.adnxs.com, DNS:*.ybp.yahoo.com, DNS:*.a.redditmedia.com, DNS:*.rubiconproject.com, DNS:*.google-analytics.com, DNS:*.ebay.com, DNS:*.imdb.com, DNS:*.google.com, DNS:*.youtube.com, DNS:*.gstatic.com, DNS:*.1rx.io, DNS:*.ebayimg.com, DNS:*.twitter.com, DNS:*.beap.bc.yahoo.com, DNS:*.liverail.com, DNS:*.yahooapis.com, DNS:*.rhythmxchange.com, DNS:*.quantserve.com, DNS:*.pubmatic.com, DNS:*.search.spotxchange.com, DNS:*.g.doubleclick.net, DNS:*.webterren.com, DNS:*.wikipedia.org, DNS:*.googletagmanager.com, DNS:*.googlesyndication.com, DNS:*.ebay.com.au, DNS:*.2mdn.net, DNS:*.zkcdn.net, DNS:*.adtechus.com, DNS:*.serving-sys.com, DNS:*.thumbs.redditmedia.com, DNS:*.images-amazon.com, DNS:*.wikimedia.org, DNS:*.media-imdb.com, DNS:*.yahoo.com, DNS:*.burstnet.com, DNS:*.contextweb.com, DNS:*.google.co.kr, DNS:*.xx.fbcdn.net, DNS:a.this, DNS:clien.net.this, DNS:*.clien.net.this, DNS:*.a.this, IP Address:127.0.0.1
    Signature Algorithm: sha256WithRSAEncryption
        25:66:df:56:ea:1d:a2:64:43:7f:17:ff:2a:05:5f:10:b9:c8:
        68:a4:d9:f1:11:57:9d:1c:10:fa:ea:f9:43:1d:e9:cd:d2:69:
        6d:87:18:d7:e7:c6:f7:ae:14:3d:20:da:2c:87:f0:2d:e8:9d:
        2c:30:4a:20:f6:1d:8c:ea:65:f9:5e:09:5a:0a:0c:09:4d:bc:
        eb:da:33:da:71:e3:11:1f:c3:17:de:f4:8d:96:55:d2:16:2e:
        29:d3:dd:ea:2b:03:1c:e0:33:32:6b:6d:f8:2f:9d:19:88:f3:
        3e:25:4f:a3:04:63:0e:79:b2:60:9b:54:55:fd:67:12:23:65:
        b0:5f:13:e7:61:21:be:4c:33:98:95:cf:28:0b:a0:2f:0f:b9:
        3f:26:d7:56:3f:09:5c:0f:13:18:42:13:d7:1d:66:c2:4f:06:
        c9:34:cc:11:66:7b:3f:8c:e1:21:55:74:00:3f:e6:d4:ad:99:
        b9:f3:30:8e:05:f8:e4:1c:a9:47:5c:c4:47:62:0c:02:df:65:
        7f:78:49:bc:3d:61:12:04:7b:b8:9c:49:90:1e:4b:60:d1:bd:
        7e:48:19:d0:39:86:0a:7b:d0:62:3f:0e:ee:fe:3d:c8:cc:37:
        26:bb:be:56:5f:5b:e5:cf:a5:a7:f0:1c:f5:53:21:b1:f7:97:
        17:1c:77:0c
-----BEGIN CERTIFICATE-----
MIIIgDCCB2igAwIBAgIBBzANBgkqhkiG9w0BAQsFADAeMRwwGgYDVQQDDBNRVUlD
IFNlcnZlciBSb290IENBMB4XDTE2MDUyOTExNTcwMloXDTE2MDYwMTExNTcwMlow
YTELMAkGA1UEBhMCVVMxEzARBgNVBAgMCkNhbGlmb3JuaWExFjAUBgNVBAcMDU1v
dW50YWluIFZpZXcxFDASBgNVBAoMC1FVSUMgU2VydmVyMQ8wDQYDVQQDDAZhLnRo
aXMwggEiMA0GCSqGSIb3DQEBAQUAA4IBDwAwggEKAoIBAQDkuLTzjysc7hwqYp2L
Yu15kLIIZObQmDXxqnh/ZInEoTnXZCkMuYZmEQggv32TuPk9Oq0U0WH3zjxArF53
oB+3GIzBp1K38FZnAl62e6mEpoEetw8ph1HY72aoW4b71kPQ3wg/SfvSTAgT8Wa+
5f32WJgGPyTEIU3+pszfLzlTotnVNRYjh97tc1wu4+VaXgS99hY4WMBKRBCKJDl8
Vlm9UzIbC4KW8JoFSRoEItsBPN8j1XONFgnvBxw3EXTndLxLbLZVFOs8+jVGPTeq
/xFlKxx9t+FAqolbIffgmE4cYZV0mY6+hqT8TKB4XqGij29MR+XstbdTHsGwb5hX
60F7AgMBAAGjggWEMIIFgDAMBgNVHRMBAf8EAjAAMB0GA1UdDgQWBBQBoG4x8HaT
3DPtB526+r45gLvKRTAfBgNVHSMEGDAWgBT0M90WZujO6neTjY5ZvVNW2dnYITAd
BgNVHSUEFjAUBggrBgEFBQcDAQYIKwYBBQUHAwIwggUPBgNVHREEggUGMIIFAoIQ
Ki5jbG91ZGZyb250Lm5ldIILKi5vcGVueC5uZXSCDyouYW1hem9uYXdzLmNvbYIS
Ki5yZWRkaXRzdGF0aWMuY29tghEqLmNhc2FsZW1lZGlhLmNvbYIKKi5jbnp6LmNv
bYILKi5hcHBsZS5jb22CDiouZmFjZWJvb2suY29tggsqLmltZ3VyLmNvbYIRKi5y
ZWRkaXRtZWRpYS5jb22CDCoucmVkZGl0LmNvbYINKi5tYXRodGFnLmNvbYIQKi5n
b29nbGVhcGlzLmNvbYIMKi5mbGlja3IuY29tghcqLnNjb3JlY2FyZHJlc2VhcmNo
LmNvbYIXKi5zc2wtaW1hZ2VzLWFtYXpvbi5jb22CCyouZ2dwaHQuY29tggwqLmFt
YXpvbi5jb22CGCouYWRhcHR2LmFkdmVydGlzaW5nLmNvbYIPKi5hZHMueWFob28u
Y29tggsqLmJ0cmxsLmNvbYIOKi5mYWNlYm9vay5uZXSCEyouY2hpbmFkYWlseS5j
b20uY26CCyoudHdpbWcuY29tgh4qLnByb2ZpbGUuY2RnNTAuY2xvdWRmcm9udC5u
ZXSCCyoueXRpbWcuY29tghAqLmViYXlzdGF0aWMuY29tggoqLnlpbWcuY29tggUq
LmNvbYINKi53cmF0aW5nLmNvbYIVKi5hbWF6b24tYWRzeXN0ZW0uY29tghIqLm1h
aW4uZWJheXJ0bS5jb22CCyouYWRueHMuY29tgg8qLnlicC55YWhvby5jb22CEyou
YS5yZWRkaXRtZWRpYS5jb22CFCoucnViaWNvbnByb2plY3QuY29tghYqLmdvb2ds
ZS1hbmFseXRpY3MuY29tggoqLmViYXkuY29tggoqLmltZGIuY29tggwqLmdvb2ds
ZS5jb22CDSoueW91dHViZS5jb22CDSouZ3N0YXRpYy5jb22CCCouMXJ4Lmlvgg0q
LmViYXlpbWcuY29tgg0qLnR3aXR0ZXIuY29tghMqLmJlYXAuYmMueWFob28uY29t
gg4qLmxpdmVyYWlsLmNvbYIPKi55YWhvb2FwaXMuY29tghMqLnJoeXRobXhjaGFu
Z2UuY29tghAqLnF1YW50c2VydmUuY29tgg4qLnB1Ym1hdGljLmNvbYIYKi5zZWFy
Y2guc3BvdHhjaGFuZ2UuY29tghMqLmcuZG91YmxlY2xpY2submV0gg8qLndlYnRl
cnJlbi5jb22CDyoud2lraXBlZGlhLm9yZ4IWKi5nb29nbGV0YWdtYW5hZ2VyLmNv
bYIXKi5nb29nbGVzeW5kaWNhdGlvbi5jb22CDSouZWJheS5jb20uYXWCCiouMm1k
bi5uZXSCCyouemtjZG4ubmV0gg4qLmFkdGVjaHVzLmNvbYIRKi5zZXJ2aW5nLXN5
cy5jb22CGCoudGh1bWJzLnJlZGRpdG1lZGlhLmNvbYITKi5pbWFnZXMtYW1hem9u
LmNvbYIPKi53aWtpbWVkaWEub3JnghAqLm1lZGlhLWltZGIuY29tggsqLnlhaG9v
LmNvbYIOKi5idXJzdG5ldC5jb22CECouY29udGV4dHdlYi5jb22CDiouZ29vZ2xl
LmNvLmtygg4qLnh4LmZiY2RuLm5ldIIGYS50aGlzgg5jbGllbi5uZXQudGhpc4IQ
Ki5jbGllbi5uZXQudGhpc4IIKi5hLnRoaXOHBH8AAAEwDQYJKoZIhvcNAQELBQAD
ggEBACVm31bqHaJkQ38X/yoFXxC5yGik2fERV50cEPrq+UMd6c3SaW2HGNfnxveu
FD0g2iyH8C3onSwwSiD2HYzqZfleCVoKDAlNvOvaM9px4xEfwxfe9I2WVdIWLinT
3eorAxzgMzJrbfgvnRmI8z4lT6MEYw55smCbVFX9ZxIjZbBfE+dhIb5MM5iVzygL
oC8PuT8m11Y/CVwPExhCE9cdZsJPBsk0zBFmez+M4SFVdAA/5tStmbnzMI4F+OQc
qUdcxEdiDALfZX94Sbw9YRIEe7icSZAeS2DRvX5IGdA5hgp70GI/Du7+PcjMNya7
vlZfW+XPpafwHPVTIbH3lxccdww=
-----END CERTIFICATE-----
