Certificate:
    Data:
        Version: 3 (0x2)
        Serial Number: 8 (0x8)
        Signature Algorithm: sha256WithRSAEncryption
        Issuer: CN=QUIC Server Root CA
        Validity
            Not Before: May 29 11:58:23 2016 GMT
            Not After : Jun  1 11:58:23 2016 GMT
        Subject: C=US, ST=California, L=Mountain View, O=QUIC Server, CN=a.this
        Subject Public Key Info:
            Public Key Algorithm: rsaEncryption
            RSA Public Key: (2048 bit)
                Modulus (2048 bit):
                    00:d5:b3:96:08:0e:50:de:15:35:1b:16:66:1c:be:
                    20:b0:dc:2f:f5:00:0c:2b:70:07:22:81:7b:87:04:
                    bb:e7:29:13:51:0f:97:4f:38:90:81:b7:2f:47:d4:
                    01:74:d1:9f:67:1b:14:1a:35:12:c6:f6:a6:45:77:
                    32:c1:ea:d9:dd:67:be:93:2d:66:8b:f6:4f:50:ba:
                    49:3d:4f:25:ca:1f:fb:5d:88:30:81:25:b0:9d:4a:
                    2a:98:91:bf:ed:0c:a4:cf:54:0b:34:78:6e:a2:0a:
                    f4:ca:bd:f8:fd:ee:ff:de:df:4a:9b:0a:29:a7:c3:
                    8a:da:35:84:d6:7b:c7:01:fb:c2:06:8c:ac:f3:bb:
                    a5:ec:46:2b:d0:25:3d:95:ff:68:2b:8d:58:18:92:
                    6e:f4:e8:29:fb:e5:b8:85:65:84:6e:d3:95:f5:75:
                    bb:6d:be:b9:c9:2b:fa:2b:c8:39:e0:dd:4d:22:67:
                    67:ef:bb:0c:4a:7b:cd:a5:dd:38:d5:68:6a:a3:79:
                    fa:71:dc:c3:eb:1c:84:17:8e:58:2f:4a:e7:82:e7:
                    c5:22:21:eb:0b:ba:51:0e:b1:4e:dd:a5:88:ac:ac:
                    70:18:8d:82:23:1e:c1:2d:67:cf:a0:82:ee:14:e6:
                    51:b4:94:11:d6:07:ca:9d:6a:cd:e2:3c:7a:46:f5:
                    64:6f
                Exponent: 65537 (0x10001)
        X509v3 extensions:
            X509v3 Basic Constraints: critical
                CA:FALSE
            X509v3 Subject Key Identifier: 
                F1:7B:E5:4B:39:5E:BF:10:F0:01:8C:0D:EF:98:C0:4C:4F:7A:8F:35
            X509v3 Authority Key Identifier: 
                keyid:F4:33:DD:16:66:E8:CE:EA:77:93:8D:8E:59:BD:53:56:D9:D9:D8:21

            X509v3 Extended Key Usage: 
                TLS Web Server Authentication, TLS Web Client Authentication
            X509v3 Subject Alternative Name: 
                DNS:*.cloudfront.net.this, DNS:*.openx.net.this, DNS:*.amazonaws.com.this, DNS:*.redditstatic.com.this, DNS:*.casalemedia.com.this, DNS:*.cnzz.com.this, DNS:*.apple.com.this, DNS:*.facebook.com.this, DNS:*.imgur.com.this, DNS:*.redditmedia.com.this, DNS:*.reddit.com.this, DNS:*.mathtag.com.this, DNS:*.googleapis.com.this, DNS:*.flickr.com.this, DNS:*.scorecardresearch.com.this, DNS:*.ssl-images-amazon.com.this, DNS:*.ggpht.com.this, DNS:*.amazon.com.this, DNS:*.adaptv.advertising.com.this, DNS:*.ads.yahoo.com.this, DNS:*.btrll.com.this, DNS:*.facebook.net.this, DNS:*.chinadaily.com.cn.this, DNS:*.twimg.com.this, DNS:*.profile.cdg50.cloudfront.net.this, DNS:*.ytimg.com.this, DNS:*.ebaystatic.com.this, DNS:*.yimg.com.this, DNS:*.com.this, DNS:*.wrating.com.this, DNS:*.amazon-adsystem.com.this, DNS:*.main.ebayrtm.com.this, DNS:*.adnxs.com.this, DNS:*.ybp.yahoo.com.this, DNS:*.a.redditmedia.com.this, DNS:*.rubiconproject.com.this, DNS:*.google-analytics.com.this, DNS:*.ebay.com.this, DNS:*.imdb.com.this, DNS:*.google.com.this, DNS:*.youtube.com.this, DNS:*.gstatic.com.this, DNS:*.1rx.io.this, DNS:*.ebayimg.com.this, DNS:*.twitter.com.this, DNS:*.beap.bc.yahoo.com.this, DNS:*.liverail.com.this, DNS:*.yahooapis.com.this, DNS:*.rhythmxchange.com.this, DNS:*.quantserve.com.this, DNS:*.pubmatic.com.this, DNS:*.search.spotxchange.com.this, DNS:*.g.doubleclick.net.this, DNS:*.webterren.com.this, DNS:*.wikipedia.org.this, DNS:*.googletagmanager.com.this, DNS:*.googlesyndication.com.this, DNS:*.ebay.com.au.this, DNS:*.2mdn.net.this, DNS:*.zkcdn.net.this, DNS:*.adtechus.com.this, DNS:*.serving-sys.com.this, DNS:*.thumbs.redditmedia.com.this, DNS:*.images-amazon.com.this, DNS:*.wikimedia.org.this, DNS:*.media-imdb.com.this, DNS:*.yahoo.com.this, DNS:*.burstnet.com.this, DNS:*.contextweb.com.this, DNS:*.google.co.kr.this, DNS:*.xx.fbcdn.net.this, DNS:a.this, DNS:clien.net.this, DNS:*.clien.net.this, DNS:*.a.this, IP Address:127.0.0.1
    Signature Algorithm: sha256WithRSAEncryption
        5d:01:2d:03:35:78:16:13:67:27:9f:54:68:b3:7d:5b:b0:dc:
        4d:f3:0f:1a:49:70:0e:a7:d2:2c:87:d5:90:73:0c:19:f3:48:
        2b:9e:4c:28:6e:f9:b1:a6:79:12:f5:85:18:fd:44:d8:76:88:
        0c:35:90:5e:c3:84:85:7a:97:3e:ce:96:e9:e3:41:05:cd:96:
        a6:9d:b8:b9:51:18:8c:22:89:cd:7d:5f:75:a9:65:ea:76:28:
        98:fa:c2:ac:5d:71:d9:d7:5c:9d:b5:9f:0b:17:54:b5:87:ef:
        96:29:28:75:75:6f:68:59:f5:13:45:e7:15:5b:29:13:0e:cc:
        75:53:02:b8:cd:bf:26:17:12:b3:5e:fe:5f:40:ce:5f:ce:cc:
        4e:3a:60:f8:45:14:32:73:d4:4d:0c:8f:65:a4:61:3a:65:e3:
        58:e1:df:05:8c:21:0a:1b:8e:61:e9:e9:62:38:41:65:91:67:
        bb:83:7f:95:72:5c:e8:24:cc:7b:c5:77:21:37:9e:48:61:ed:
        0c:96:90:e2:e2:46:d7:cc:c5:f5:01:e2:b5:5f:fa:fe:90:a2:
        8b:4e:46:00:e2:60:ec:65:99:8a:fe:21:c7:19:95:27:2d:83:
        5f:69:d8:d7:3d:aa:b3:ce:d2:46:da:a8:b1:9c:73:2a:a4:c4:
        f8:4d:ca:7f
-----BEGIN CERTIFICATE-----
MIIJ4zCCCMugAwIBAgIBCDANBgkqhkiG9w0BAQsFADAeMRwwGgYDVQQDDBNRVUlD
IFNlcnZlciBSb290IENBMB4XDTE2MDUyOTExNTgyM1oXDTE2MDYwMTExNTgyM1ow
YTELMAkGA1UEBhMCVVMxEzARBgNVBAgMCkNhbGlmb3JuaWExFjAUBgNVBAcMDU1v
dW50YWluIFZpZXcxFDASBgNVBAoMC1FVSUMgU2VydmVyMQ8wDQYDVQQDDAZhLnRo
aXMwggEiMA0GCSqGSIb3DQEBAQUAA4IBDwAwggEKAoIBAQDVs5YIDlDeFTUbFmYc
viCw3C/1AAwrcAcigXuHBLvnKRNRD5dPOJCBty9H1AF00Z9nGxQaNRLG9qZFdzLB
6tndZ76TLWaL9k9Qukk9TyXKH/tdiDCBJbCdSiqYkb/tDKTPVAs0eG6iCvTKvfj9
7v/e30qbCimnw4raNYTWe8cB+8IGjKzzu6XsRivQJT2V/2grjVgYkm706Cn75biF
ZYRu05X1dbttvrnJK/oryDng3U0iZ2fvuwxKe82l3TjVaGqjefpx3MPrHIQXjlgv
SueC58UiIesLulEOsU7dpYisrHAYjYIjHsEtZ8+ggu4U5lG0lBHWB8qdas3iPHpG
9WRvAgMBAAGjggbnMIIG4zAMBgNVHRMBAf8EAjAAMB0GA1UdDgQWBBTxe+VLOV6/
EPABjA3vmMBMT3qPNTAfBgNVHSMEGDAWgBT0M90WZujO6neTjY5ZvVNW2dnYITAd
BgNVHSUEFjAUBggrBgEFBQcDAQYIKwYBBQUHAwIwggZyBgNVHREEggZpMIIGZYIV
Ki5jbG91ZGZyb250Lm5ldC50aGlzghAqLm9wZW54Lm5ldC50aGlzghQqLmFtYXpv
bmF3cy5jb20udGhpc4IXKi5yZWRkaXRzdGF0aWMuY29tLnRoaXOCFiouY2FzYWxl
bWVkaWEuY29tLnRoaXOCDyouY256ei5jb20udGhpc4IQKi5hcHBsZS5jb20udGhp
c4ITKi5mYWNlYm9vay5jb20udGhpc4IQKi5pbWd1ci5jb20udGhpc4IWKi5yZWRk
aXRtZWRpYS5jb20udGhpc4IRKi5yZWRkaXQuY29tLnRoaXOCEioubWF0aHRhZy5j
b20udGhpc4IVKi5nb29nbGVhcGlzLmNvbS50aGlzghEqLmZsaWNrci5jb20udGhp
c4IcKi5zY29yZWNhcmRyZXNlYXJjaC5jb20udGhpc4IcKi5zc2wtaW1hZ2VzLWFt
YXpvbi5jb20udGhpc4IQKi5nZ3BodC5jb20udGhpc4IRKi5hbWF6b24uY29tLnRo
aXOCHSouYWRhcHR2LmFkdmVydGlzaW5nLmNvbS50aGlzghQqLmFkcy55YWhvby5j
b20udGhpc4IQKi5idHJsbC5jb20udGhpc4ITKi5mYWNlYm9vay5uZXQudGhpc4IY
Ki5jaGluYWRhaWx5LmNvbS5jbi50aGlzghAqLnR3aW1nLmNvbS50aGlzgiMqLnBy
b2ZpbGUuY2RnNTAuY2xvdWRmcm9udC5uZXQudGhpc4IQKi55dGltZy5jb20udGhp
c4IVKi5lYmF5c3RhdGljLmNvbS50aGlzgg8qLnlpbWcuY29tLnRoaXOCCiouY29t
LnRoaXOCEioud3JhdGluZy5jb20udGhpc4IaKi5hbWF6b24tYWRzeXN0ZW0uY29t
LnRoaXOCFyoubWFpbi5lYmF5cnRtLmNvbS50aGlzghAqLmFkbnhzLmNvbS50aGlz
ghQqLnlicC55YWhvby5jb20udGhpc4IYKi5hLnJlZGRpdG1lZGlhLmNvbS50aGlz
ghkqLnJ1Ymljb25wcm9qZWN0LmNvbS50aGlzghsqLmdvb2dsZS1hbmFseXRpY3Mu
Y29tLnRoaXOCDyouZWJheS5jb20udGhpc4IPKi5pbWRiLmNvbS50aGlzghEqLmdv
b2dsZS5jb20udGhpc4ISKi55b3V0dWJlLmNvbS50aGlzghIqLmdzdGF0aWMuY29t
LnRoaXOCDSouMXJ4LmlvLnRoaXOCEiouZWJheWltZy5jb20udGhpc4ISKi50d2l0
dGVyLmNvbS50aGlzghgqLmJlYXAuYmMueWFob28uY29tLnRoaXOCEyoubGl2ZXJh
aWwuY29tLnRoaXOCFCoueWFob29hcGlzLmNvbS50aGlzghgqLnJoeXRobXhjaGFu
Z2UuY29tLnRoaXOCFSoucXVhbnRzZXJ2ZS5jb20udGhpc4ITKi5wdWJtYXRpYy5j
b20udGhpc4IdKi5zZWFyY2guc3BvdHhjaGFuZ2UuY29tLnRoaXOCGCouZy5kb3Vi
bGVjbGljay5uZXQudGhpc4IUKi53ZWJ0ZXJyZW4uY29tLnRoaXOCFCoud2lraXBl
ZGlhLm9yZy50aGlzghsqLmdvb2dsZXRhZ21hbmFnZXIuY29tLnRoaXOCHCouZ29v
Z2xlc3luZGljYXRpb24uY29tLnRoaXOCEiouZWJheS5jb20uYXUudGhpc4IPKi4y
bWRuLm5ldC50aGlzghAqLnprY2RuLm5ldC50aGlzghMqLmFkdGVjaHVzLmNvbS50
aGlzghYqLnNlcnZpbmctc3lzLmNvbS50aGlzgh0qLnRodW1icy5yZWRkaXRtZWRp
YS5jb20udGhpc4IYKi5pbWFnZXMtYW1hem9uLmNvbS50aGlzghQqLndpa2ltZWRp
YS5vcmcudGhpc4IVKi5tZWRpYS1pbWRiLmNvbS50aGlzghAqLnlhaG9vLmNvbS50
aGlzghMqLmJ1cnN0bmV0LmNvbS50aGlzghUqLmNvbnRleHR3ZWIuY29tLnRoaXOC
EyouZ29vZ2xlLmNvLmtyLnRoaXOCEyoueHguZmJjZG4ubmV0LnRoaXOCBmEudGhp
c4IOY2xpZW4ubmV0LnRoaXOCECouY2xpZW4ubmV0LnRoaXOCCCouYS50aGlzhwR/
AAABMA0GCSqGSIb3DQEBCwUAA4IBAQBdAS0DNXgWE2cnn1Ros31bsNxN8w8aSXAO
p9Ish9WQcwwZ80grnkwobvmxpnkS9YUY/UTYdogMNZBew4SFepc+zpbp40EFzZam
nbi5URiMIonNfV91qWXqdiiY+sKsXXHZ11ydtZ8LF1S1h++WKSh1dW9oWfUTRecV
WykTDsx1UwK4zb8mFxKzXv5fQM5fzsxOOmD4RRQyc9RNDI9lpGE6ZeNY4d8FjCEK
G45h6eliOEFlkWe7g3+VclzoJMx7xXchN55IYe0MlpDi4kbXzMX1AeK1X/r+kKKL
TkYA4mDsZZmK/iHHGZUnLYNfadjXPaqzztJG2qixnHMqpMT4Tcp/
-----END CERTIFICATE-----
