Certificate:
    Data:
        Version: 3 (0x2)
        Serial Number: 9 (0x9)
        Signature Algorithm: sha256WithRSAEncryption
        Issuer: CN=QUIC Server Root CA
        Validity
            Not Before: May 31 12:33:32 2016 GMT
            Not After : Jun  3 12:33:32 2016 GMT
        Subject: C=US, ST=California, L=Mountain View, O=QUIC Server, CN=a.this
        Subject Public Key Info:
            Public Key Algorithm: rsaEncryption
            RSA Public Key: (2048 bit)
                Modulus (2048 bit):
                    00:bb:ce:67:94:8e:d6:87:93:88:b9:79:9e:36:6f:
                    8a:79:f4:27:90:db:fd:d0:a4:1a:44:51:0c:28:7d:
                    36:68:72:eb:bb:e3:32:25:cc:0d:88:aa:7a:56:30:
                    96:a3:7e:6d:01:c7:95:29:71:cc:cc:16:ce:a5:4c:
                    1a:a3:03:72:35:22:2d:4d:2d:4b:3a:5d:9c:92:46:
                    3b:30:e7:52:07:4a:b2:f1:e4:59:a0:11:d8:0a:b3:
                    f5:7f:d1:e9:eb:ef:0a:0f:ce:71:6c:59:a4:c8:a7:
                    c8:db:d1:a8:d1:fc:1c:8f:ae:ed:3a:01:9f:c2:f3:
                    ff:53:41:95:ad:8b:ed:5f:07:bb:04:f0:02:e1:3f:
                    9c:a0:53:c0:1f:e5:fe:7b:ca:b9:73:82:c3:32:5d:
                    41:50:eb:0a:11:7c:d3:a1:c8:56:4e:30:93:bf:86:
                    42:bd:cd:ef:64:d4:e0:57:b6:74:e9:07:09:97:10:
                    a9:c0:62:51:bf:b1:81:19:be:cb:d0:19:d4:b0:2c:
                    12:05:3b:8e:a5:5a:0d:5f:5d:94:ac:1f:4e:a5:9c:
                    20:9c:16:bd:37:00:3a:e2:6a:f3:54:17:9e:74:92:
                    fd:2e:12:1f:47:d4:ca:49:d5:35:6b:93:5e:69:20:
                    1d:7c:41:b6:d7:86:27:00:c0:0a:f8:74:2d:f1:46:
                    13:11
                Exponent: 65537 (0x10001)
        X509v3 extensions:
            X509v3 Basic Constraints: critical
                CA:FALSE
            X509v3 Subject Key Identifier: 
                C7:0D:A3:40:DC:6A:FD:EB:7B:BA:4B:BF:E5:7F:3F:F2:EE:B1:68:18
            X509v3 Authority Key Identifier: 
                keyid:F4:33:DD:16:66:E8:CE:EA:77:93:8D:8E:59:BD:53:56:D9:D9:D8:21

            X509v3 Extended Key Usage: 
                TLS Web Server Authentication, TLS Web Client Authentication
            X509v3 Subject Alternative Name: 
                DNS:login.wikimedia.org, DNS:ssum.casalemedia.com, DNS:api.branch.io, DNS:partner.googleadservices.com, DNS:en.m.wikipedia.org, DNS:cm.g.doubleclick.net, DNS:www.amazon.com, DNS:a.thoughtleadr.com, DNS:www.google-analytics.com, DNS:aax-us-east.amazon-adsystem.com, DNS:ia.media-imdb.com, DNS:tpc.googlesyndication.com, DNS:m.imgur.com, DNS:sync.search.spotxchange.com, DNS:m.imdb.com, DNS:shopbop.sp1.convertro.com, DNS:fonts.googleapis.com, DNS:i.imgur.com, DNS:ib.adnxs.com, DNS:sb.scorecardresearch.com, DNS:www.googletagservices.com, DNS:tap.rubiconproject.com, DNS:sync.1rx.io, DNS:pixel.quantserve.com, DNS:ums.adtechus.com, DNS:api.imgur.com, DNS:sync.adaptv.advertising.com, DNS:s.amazon-adsystem.com, DNS:fls-na.amazon.com, DNS:sync.rhythmxchange.com, DNS:bh.contextweb.com, DNS:www.apple.com, DNS:www.burstnet.com, DNS:fonts.gstatic.com, DNS:geo-um.btrll.com, DNS:t4.liverail.com, DNS:s.media-imdb.com, DNS:image5.pubmatic.com, DNS:www.facebook.com, DNS:ads.yahoo.com, DNS:bnc.lt, DNS:images-na.ssl-images-amazon.com, DNS:upload.wikimedia.org, DNS:us-u.openx.net, DNS:a.this, DNS:clien.net.this, DNS:*.clien.net.this, DNS:*.a.this, IP Address:127.0.0.1
    Signature Algorithm: sha256WithRSAEncryption
        76:1b:dc:3f:ad:a4:91:15:3f:aa:df:40:dd:e3:6b:c0:ab:9e:
        8e:79:06:97:cb:f3:7e:91:4d:ea:b3:cd:ff:51:df:0a:6e:e8:
        04:cb:e2:e3:32:43:5f:d9:88:d9:28:48:8b:aa:7a:0e:b7:41:
        d6:53:83:40:c7:64:ae:f7:8a:25:7c:ff:b8:aa:de:8e:35:b6:
        a8:94:8c:a3:75:de:00:72:72:7b:a8:55:ad:7b:1f:69:57:2f:
        c1:12:27:8e:cd:29:54:8f:08:76:ef:74:d7:4a:6f:a7:0f:b0:
        8e:fd:1b:08:a1:1a:80:28:7e:9f:fe:53:1e:a8:22:d0:d8:30:
        81:57:a7:35:57:76:b6:95:47:7f:d6:f9:f2:39:b6:c8:51:46:
        71:d3:db:e4:3e:db:bc:67:7d:3b:4f:dd:4e:67:77:f3:cf:b1:
        a0:8c:8d:66:61:52:61:db:79:63:8c:4b:49:3a:9c:20:b9:d7:
        97:df:8d:c3:4d:9d:da:fc:d8:71:cd:b2:01:0f:11:93:af:11:
        90:d3:4f:ba:ea:ac:c3:d1:8d:03:69:d9:46:08:8e:35:40:3f:
        21:46:d9:e7:e0:fc:30:2d:bf:68:8a:03:90:cf:ea:f4:8a:df:
        5d:65:f0:68:6a:3a:f7:61:5a:26:84:57:5e:4f:5a:9a:46:bc:
        cf:09:7e:8f
-----BEGIN CERTIFICATE-----
MIIHOjCCBiKgAwIBAgIBCTANBgkqhkiG9w0BAQsFADAeMRwwGgYDVQQDDBNRVUlD
IFNlcnZlciBSb290IENBMB4XDTE2MDUzMTEyMzMzMloXDTE2MDYwMzEyMzMzMlow
YTELMAkGA1UEBhMCVVMxEzARBgNVBAgMCkNhbGlmb3JuaWExFjAUBgNVBAcMDU1v
dW50YWluIFZpZXcxFDASBgNVBAoMC1FVSUMgU2VydmVyMQ8wDQYDVQQDDAZhLnRo
aXMwggEiMA0GCSqGSIb3DQEBAQUAA4IBDwAwggEKAoIBAQC7zmeUjtaHk4i5eZ42
b4p59CeQ2/3QpBpEUQwofTZocuu74zIlzA2IqnpWMJajfm0Bx5UpcczMFs6lTBqj
A3I1Ii1NLUs6XZySRjsw51IHSrLx5FmgEdgKs/V/0enr7woPznFsWaTIp8jb0ajR
/ByPru06AZ/C8/9TQZWti+1fB7sE8ALhP5ygU8Af5f57yrlzgsMyXUFQ6woRfNOh
yFZOMJO/hkK9ze9k1OBXtnTpBwmXEKnAYlG/sYEZvsvQGdSwLBIFO46lWg1fXZSs
H06lnCCcFr03ADriavNUF550kv0uEh9H1MpJ1TVrk15pIB18QbbXhicAwAr4dC3x
RhMRAgMBAAGjggQ+MIIEOjAMBgNVHRMBAf8EAjAAMB0GA1UdDgQWBBTHDaNA3Gr9
63u6S7/lfz/y7rFoGDAfBgNVHSMEGDAWgBT0M90WZujO6neTjY5ZvVNW2dnYITAd
BgNVHSUEFjAUBggrBgEFBQcDAQYIKwYBBQUHAwIwggPJBgNVHREEggPAMIIDvIIT
bG9naW4ud2lraW1lZGlhLm9yZ4IUc3N1bS5jYXNhbGVtZWRpYS5jb22CDWFwaS5i
cmFuY2guaW+CHHBhcnRuZXIuZ29vZ2xlYWRzZXJ2aWNlcy5jb22CEmVuLm0ud2lr
aXBlZGlhLm9yZ4IUY20uZy5kb3VibGVjbGljay5uZXSCDnd3dy5hbWF6b24uY29t
ghJhLnRob3VnaHRsZWFkci5jb22CGHd3dy5nb29nbGUtYW5hbHl0aWNzLmNvbYIf
YWF4LXVzLWVhc3QuYW1hem9uLWFkc3lzdGVtLmNvbYIRaWEubWVkaWEtaW1kYi5j
b22CGXRwYy5nb29nbGVzeW5kaWNhdGlvbi5jb22CC20uaW1ndXIuY29tghtzeW5j
LnNlYXJjaC5zcG90eGNoYW5nZS5jb22CCm0uaW1kYi5jb22CGXNob3Bib3Auc3Ax
LmNvbnZlcnRyby5jb22CFGZvbnRzLmdvb2dsZWFwaXMuY29tggtpLmltZ3VyLmNv
bYIMaWIuYWRueHMuY29tghhzYi5zY29yZWNhcmRyZXNlYXJjaC5jb22CGXd3dy5n
b29nbGV0YWdzZXJ2aWNlcy5jb22CFnRhcC5ydWJpY29ucHJvamVjdC5jb22CC3N5
bmMuMXJ4LmlvghRwaXhlbC5xdWFudHNlcnZlLmNvbYIQdW1zLmFkdGVjaHVzLmNv
bYINYXBpLmltZ3VyLmNvbYIbc3luYy5hZGFwdHYuYWR2ZXJ0aXNpbmcuY29tghVz
LmFtYXpvbi1hZHN5c3RlbS5jb22CEWZscy1uYS5hbWF6b24uY29tghZzeW5jLnJo
eXRobXhjaGFuZ2UuY29tghFiaC5jb250ZXh0d2ViLmNvbYINd3d3LmFwcGxlLmNv
bYIQd3d3LmJ1cnN0bmV0LmNvbYIRZm9udHMuZ3N0YXRpYy5jb22CEGdlby11bS5i
dHJsbC5jb22CD3Q0LmxpdmVyYWlsLmNvbYIQcy5tZWRpYS1pbWRiLmNvbYITaW1h
Z2U1LnB1Ym1hdGljLmNvbYIQd3d3LmZhY2Vib29rLmNvbYINYWRzLnlhaG9vLmNv
bYIGYm5jLmx0gh9pbWFnZXMtbmEuc3NsLWltYWdlcy1hbWF6b24uY29tghR1cGxv
YWQud2lraW1lZGlhLm9yZ4IOdXMtdS5vcGVueC5uZXSCBmEudGhpc4IOY2xpZW4u
bmV0LnRoaXOCECouY2xpZW4ubmV0LnRoaXOCCCouYS50aGlzhwR/AAABMA0GCSqG
SIb3DQEBCwUAA4IBAQB2G9w/raSRFT+q30Dd42vAq56OeQaXy/N+kU3qs83/Ud8K
bugEy+LjMkNf2YjZKEiLqnoOt0HWU4NAx2Su94olfP+4qt6ONbaolIyjdd4AcnJ7
qFWtex9pVy/BEieOzSlUjwh273TXSm+nD7CO/RsIoRqAKH6f/lMeqCLQ2DCBV6c1
V3a2lUd/1vnyObbIUUZx09vkPtu8Z307T91OZ3fzz7GgjI1mYVJh23ljjEtJOpwg
udeX343DTZ3a/NhxzbIBDxGTrxGQ00+66qzD0Y0DadlGCI41QD8hRtnn4PwwLb9o
igOQz+r0it9dZfBoajr3YVomhFdeT1qaRrzPCX6P
-----END CERTIFICATE-----
