Certificate:
    Data:
        Version: 3 (0x2)
        Serial Number: 10 (0xa)
        Signature Algorithm: sha256WithRSAEncryption
        Issuer: CN=QUIC Server Root CA
        Validity
            Not Before: May 31 12:35:55 2016 GMT
            Not After : Jun  3 12:35:55 2016 GMT
        Subject: C=US, ST=California, L=Mountain View, O=QUIC Server, CN=a.this
        Subject Public Key Info:
            Public Key Algorithm: rsaEncryption
            RSA Public Key: (2048 bit)
                Modulus (2048 bit):
                    00:ac:f7:c2:e4:13:88:e6:2c:8e:57:9b:23:07:5c:
                    31:6a:a0:7a:a2:75:56:dc:51:1e:1c:70:90:ab:2a:
                    ba:0b:99:ea:f7:95:a1:32:fe:c8:80:fa:31:07:f3:
                    b3:36:a2:a8:2d:e6:f9:ea:a9:3e:36:b6:37:69:d4:
                    3b:5a:14:05:2c:04:33:4e:61:b6:3b:15:16:25:4f:
                    77:87:37:a6:1d:e0:12:d8:49:8b:1c:dd:b0:58:e5:
                    07:ba:5a:0c:da:4e:43:63:c4:1e:72:a6:47:0a:e4:
                    13:97:28:ed:19:b0:f5:c4:61:c2:ae:91:0d:c4:00:
                    54:75:07:72:e2:ce:35:4d:52:00:33:6b:9a:10:8d:
                    0c:f5:bd:75:a9:cc:5c:43:0f:1f:2f:2c:d5:f2:b8:
                    48:47:3b:7b:75:69:41:40:df:be:81:90:1d:01:5a:
                    e1:96:59:49:4d:88:20:03:d4:6b:79:c7:69:c8:28:
                    79:a9:6e:94:7a:5b:9e:da:47:34:8d:95:b5:17:a0:
                    b9:eb:8d:c7:a0:2e:14:a5:37:e9:1e:c4:e1:0e:e7:
                    69:0a:d0:47:21:9d:ff:28:69:cc:30:85:fe:0c:41:
                    d6:51:9f:b2:c2:77:2a:7f:ce:a4:c1:55:33:b1:ee:
                    78:89:e7:26:e4:68:e0:c0:78:32:5b:63:ce:52:3b:
                    50:d5
                Exponent: 65537 (0x10001)
        X509v3 extensions:
            X509v3 Basic Constraints: critical
                CA:FALSE
            X509v3 Subject Key Identifier: 
                6B:DB:DA:56:87:40:29:5B:6E:5C:99:BD:2E:29:8E:26:DF:4B:FA:8E
            X509v3 Authority Key Identifier: 
                keyid:F4:33:DD:16:66:E8:CE:EA:77:93:8D:8E:59:BD:53:56:D9:D9:D8:21

            X509v3 Extended Key Usage: 
                TLS Web Server Authentication, TLS Web Client Authentication
            X509v3 Subject Alternative Name: 
                DNS:login.wikimedia.org.this, DNS:ssum.casalemedia.com.this, DNS:api.branch.io.this, DNS:partner.googleadservices.com.this, DNS:en.m.wikipedia.org.this, DNS:cm.g.doubleclick.net.this, DNS:www.amazon.com.this, DNS:a.thoughtleadr.com.this, DNS:www.google-analytics.com.this, DNS:aax-us-east.amazon-adsystem.com.this, DNS:ia.media-imdb.com.this, DNS:tpc.googlesyndication.com.this, DNS:m.imgur.com.this, DNS:sync.search.spotxchange.com.this, DNS:m.imdb.com.this, DNS:shopbop.sp1.convertro.com.this, DNS:fonts.googleapis.com.this, DNS:i.imgur.com.this, DNS:ib.adnxs.com.this, DNS:sb.scorecardresearch.com.this, DNS:www.googletagservices.com.this, DNS:tap.rubiconproject.com.this, DNS:sync.1rx.io.this, DNS:pixel.quantserve.com.this, DNS:ums.adtechus.com.this, DNS:api.imgur.com.this, DNS:sync.adaptv.advertising.com.this, DNS:s.amazon-adsystem.com.this, DNS:fls-na.amazon.com.this, DNS:sync.rhythmxchange.com.this, DNS:bh.contextweb.com.this, DNS:www.apple.com.this, DNS:www.burstnet.com.this, DNS:fonts.gstatic.com.this, DNS:geo-um.btrll.com.this, DNS:t4.liverail.com.this, DNS:s.media-imdb.com.this, DNS:image5.pubmatic.com.this, DNS:www.facebook.com.this, DNS:ads.yahoo.com.this, DNS:bnc.lt.this, DNS:images-na.ssl-images-amazon.com.this, DNS:upload.wikimedia.org.this, DNS:us-u.openx.net.this, DNS:a.this, DNS:clien.net.this, DNS:*.clien.net.this, DNS:*.a.this, IP Address:127.0.0.1
    Signature Algorithm: sha256WithRSAEncryption
        3c:ea:c3:7b:df:50:ad:09:98:dd:43:93:f7:e7:48:48:ab:0a:
        81:9f:dc:83:e5:3f:f0:b0:d4:c6:3b:3a:7a:bb:0b:f3:6c:19:
        a6:50:61:87:17:2a:fe:9e:52:34:dd:88:01:7f:d9:34:b3:5c:
        5b:15:31:a0:3b:92:ba:47:79:da:3d:4b:e8:2d:a1:69:de:4d:
        7a:1d:b3:d2:25:d4:84:1b:b4:84:a3:09:38:26:60:0d:3c:a4:
        1c:0d:bd:10:e3:67:9e:f6:20:ad:23:f2:57:31:90:61:64:bc:
        73:19:a2:21:b3:aa:cf:68:ad:a0:11:ce:78:26:88:90:5c:f3:
        57:b4:98:c1:40:8b:0d:e6:b7:6f:8e:36:01:af:1f:3a:46:cc:
        1f:1f:45:f8:df:28:cc:38:43:e6:da:17:d6:90:3c:96:b5:6e:
        55:1a:be:c9:8c:88:64:a4:cc:59:6e:b4:44:76:22:44:2a:79:
        c8:46:a7:c4:b2:dd:28:ad:04:e0:6a:e8:87:94:52:cb:66:c0:
        4b:d4:9b:f8:e5:dd:fc:6e:e4:4c:18:e6:3b:60:8f:96:53:17:
        33:d1:4b:62:a3:03:50:68:c2:40:90:2e:dc:7e:8a:d2:bd:a0:
        bd:56:0c:b7:74:e6:b8:49:73:af:a4:2f:8f:fc:bd:ad:3f:a2:
        aa:21:31:92
-----BEGIN CERTIFICATE-----
MIIIFjCCBv6gAwIBAgIBCjANBgkqhkiG9w0BAQsFADAeMRwwGgYDVQQDDBNRVUlD
IFNlcnZlciBSb290IENBMB4XDTE2MDUzMTEyMzU1NVoXDTE2MDYwMzEyMzU1NVow
YTELMAkGA1UEBhMCVVMxEzARBgNVBAgMCkNhbGlmb3JuaWExFjAUBgNVBAcMDU1v
dW50YWluIFZpZXcxFDASBgNVBAoMC1FVSUMgU2VydmVyMQ8wDQYDVQQDDAZhLnRo
aXMwggEiMA0GCSqGSIb3DQEBAQUAA4IBDwAwggEKAoIBAQCs98LkE4jmLI5XmyMH
XDFqoHqidVbcUR4ccJCrKroLmer3laEy/siA+jEH87M2oqgt5vnqqT42tjdp1Dta
FAUsBDNOYbY7FRYlT3eHN6Yd4BLYSYsc3bBY5Qe6WgzaTkNjxB5ypkcK5BOXKO0Z
sPXEYcKukQ3EAFR1B3LizjVNUgAza5oQjQz1vXWpzFxDDx8vLNXyuEhHO3t1aUFA
376BkB0BWuGWWUlNiCAD1Gt5x2nIKHmpbpR6W57aRzSNlbUXoLnrjcegLhSlN+ke
xOEO52kK0Echnf8oacwwhf4MQdZRn7LCdyp/zqTBVTOx7niJ5ybkaODAeDJbY85S
O1DVAgMBAAGjggUaMIIFFjAMBgNVHRMBAf8EAjAAMB0GA1UdDgQWBBRr29pWh0Ap
W25cmb0uKY4m30v6jjAfBgNVHSMEGDAWgBT0M90WZujO6neTjY5ZvVNW2dnYITAd
BgNVHSUEFjAUBggrBgEFBQcDAQYIKwYBBQUHAwIwggSlBgNVHREEggScMIIEmIIY
bG9naW4ud2lraW1lZGlhLm9yZy50aGlzghlzc3VtLmNhc2FsZW1lZGlhLmNvbS50
aGlzghJhcGkuYnJhbmNoLmlvLnRoaXOCIXBhcnRuZXIuZ29vZ2xlYWRzZXJ2aWNl
cy5jb20udGhpc4IXZW4ubS53aWtpcGVkaWEub3JnLnRoaXOCGWNtLmcuZG91Ymxl
Y2xpY2submV0LnRoaXOCE3d3dy5hbWF6b24uY29tLnRoaXOCF2EudGhvdWdodGxl
YWRyLmNvbS50aGlzgh13d3cuZ29vZ2xlLWFuYWx5dGljcy5jb20udGhpc4IkYWF4
LXVzLWVhc3QuYW1hem9uLWFkc3lzdGVtLmNvbS50aGlzghZpYS5tZWRpYS1pbWRi
LmNvbS50aGlzgh50cGMuZ29vZ2xlc3luZGljYXRpb24uY29tLnRoaXOCEG0uaW1n
dXIuY29tLnRoaXOCIHN5bmMuc2VhcmNoLnNwb3R4Y2hhbmdlLmNvbS50aGlzgg9t
LmltZGIuY29tLnRoaXOCHnNob3Bib3Auc3AxLmNvbnZlcnRyby5jb20udGhpc4IZ
Zm9udHMuZ29vZ2xlYXBpcy5jb20udGhpc4IQaS5pbWd1ci5jb20udGhpc4IRaWIu
YWRueHMuY29tLnRoaXOCHXNiLnNjb3JlY2FyZHJlc2VhcmNoLmNvbS50aGlzgh53
d3cuZ29vZ2xldGFnc2VydmljZXMuY29tLnRoaXOCG3RhcC5ydWJpY29ucHJvamVj
dC5jb20udGhpc4IQc3luYy4xcnguaW8udGhpc4IZcGl4ZWwucXVhbnRzZXJ2ZS5j
b20udGhpc4IVdW1zLmFkdGVjaHVzLmNvbS50aGlzghJhcGkuaW1ndXIuY29tLnRo
aXOCIHN5bmMuYWRhcHR2LmFkdmVydGlzaW5nLmNvbS50aGlzghpzLmFtYXpvbi1h
ZHN5c3RlbS5jb20udGhpc4IWZmxzLW5hLmFtYXpvbi5jb20udGhpc4Ibc3luYy5y
aHl0aG14Y2hhbmdlLmNvbS50aGlzghZiaC5jb250ZXh0d2ViLmNvbS50aGlzghJ3
d3cuYXBwbGUuY29tLnRoaXOCFXd3dy5idXJzdG5ldC5jb20udGhpc4IWZm9udHMu
Z3N0YXRpYy5jb20udGhpc4IVZ2VvLXVtLmJ0cmxsLmNvbS50aGlzghR0NC5saXZl
cmFpbC5jb20udGhpc4IVcy5tZWRpYS1pbWRiLmNvbS50aGlzghhpbWFnZTUucHVi
bWF0aWMuY29tLnRoaXOCFXd3dy5mYWNlYm9vay5jb20udGhpc4ISYWRzLnlhaG9v
LmNvbS50aGlzggtibmMubHQudGhpc4IkaW1hZ2VzLW5hLnNzbC1pbWFnZXMtYW1h
em9uLmNvbS50aGlzghl1cGxvYWQud2lraW1lZGlhLm9yZy50aGlzghN1cy11Lm9w
ZW54Lm5ldC50aGlzggZhLnRoaXOCDmNsaWVuLm5ldC50aGlzghAqLmNsaWVuLm5l
dC50aGlzgggqLmEudGhpc4cEfwAAATANBgkqhkiG9w0BAQsFAAOCAQEAPOrDe99Q
rQmY3UOT9+dISKsKgZ/cg+U/8LDUxjs6ersL82wZplBhhxcq/p5SNN2IAX/ZNLNc
WxUxoDuSukd52j1L6C2had5Neh2z0iXUhBu0hKMJOCZgDTykHA29EONnnvYgrSPy
VzGQYWS8cxmiIbOqz2itoBHOeCaIkFzzV7SYwUCLDea3b442Aa8fOkbMHx9F+N8o
zDhD5toX1pA8lrVuVRq+yYyIZKTMWW60RHYiRCp5yEanxLLdKK0E4Groh5RSy2bA
S9Sb+OXd/G7kTBjmO2CPllMXM9FLYqMDUGjCQJAu3H6K0r2gvVYMt3TmuElzr6Qv
j/y9rT+iqiExkg==
-----END CERTIFICATE-----
