Certificate:
    Data:
        Version: 3 (0x2)
        Serial Number: 11 (0xb)
        Signature Algorithm: sha256WithRSAEncryption
        Issuer: CN=QUIC Server Root CA
        Validity
            Not Before: Jun  6 03:37:21 2016 GMT
            Not After : Jul  6 03:37:21 2016 GMT
        Subject: C=US, ST=California, L=Mountain View, O=QUIC Server, CN=a.this
        Subject Public Key Info:
            Public Key Algorithm: rsaEncryption
            RSA Public Key: (2048 bit)
                Modulus (2048 bit):
                    00:c5:18:e5:4c:64:74:c6:f9:0e:87:d6:95:61:a1:
                    78:ec:ce:52:2d:9a:dd:22:97:03:52:77:da:29:78:
                    a7:ac:6b:b6:37:be:a6:9c:c9:2b:d1:50:56:f4:b9:
                    d8:64:bf:d5:f3:92:14:0c:54:48:7d:a6:8e:3d:04:
                    6d:03:82:c6:2c:05:5a:2e:94:ee:ec:24:c7:35:33:
                    43:57:39:54:3f:56:d3:b2:1e:d6:54:6e:6c:f3:05:
                    9d:69:94:c0:a8:63:84:c9:21:38:f6:2a:13:c6:9a:
                    59:14:7b:05:83:9b:b2:5c:af:aa:02:35:d3:5a:3e:
                    36:b1:4e:f4:f3:ac:66:7e:8c:18:3d:79:c3:75:09:
                    c0:4d:62:4f:de:41:4d:a3:a5:07:8d:5d:ea:8f:2f:
                    65:99:8a:28:a5:17:67:d3:c6:6c:40:81:9d:a7:95:
                    60:92:6a:0a:93:83:da:14:56:11:4b:85:12:63:7f:
                    66:64:ad:a9:24:e2:6d:e3:49:c7:eb:fc:33:18:75:
                    4b:ca:e1:8f:a7:02:d4:3e:69:fc:29:f2:cd:37:d9:
                    1e:f5:49:2b:69:0b:8c:19:9f:3a:ed:e4:0b:7d:66:
                    c5:5b:18:2b:c3:a8:8a:5d:f5:04:59:43:20:b8:f6:
                    c4:01:9e:c0:43:7f:57:93:8c:d0:c5:6b:5b:a1:2b:
                    ac:7d
                Exponent: 65537 (0x10001)
        X509v3 extensions:
            X509v3 Basic Constraints: critical
                CA:FALSE
            X509v3 Subject Key Identifier: 
                E4:65:21:D0:6D:40:A1:53:84:E7:94:64:B6:E1:E8:5B:EC:36:FB:F1
            X509v3 Authority Key Identifier: 
                keyid:F4:33:DD:16:66:E8:CE:EA:77:93:8D:8E:59:BD:53:56:D9:D9:D8:21

            X509v3 Extended Key Usage: 
                TLS Web Server Authentication, TLS Web Client Authentication
            X509v3 Subject Alternative Name: 
                DNS:login.wikimedia.org.this, DNS:ssum.casalemedia.com.this, DNS:api.branch.io.this, DNS:partner.googleadservices.com.this, DNS:en.m.wikipedia.org.this, DNS:cm.g.doubleclick.net.this, DNS:www.amazon.com.this, DNS:a.thoughtleadr.com.this, DNS:www.google-analytics.com.this, DNS:aax-us-east.amazon-adsystem.com.this, DNS:ia.media-imdb.com.this, DNS:tpc.googlesyndication.com.this, DNS:m.imgur.com.this, DNS:sync.search.spotxchange.com.this, DNS:m.imdb.com.this, DNS:shopbop.sp1.convertro.com.this, DNS:fonts.googleapis.com.this, DNS:i.imgur.com.this, DNS:ib.adnxs.com.this, DNS:sb.scorecardresearch.com.this, DNS:www.googletagservices.com.this, DNS:tap.rubiconproject.com.this, DNS:sync.1rx.io.this, DNS:pixel.quantserve.com.this, DNS:ums.adtechus.com.this, DNS:api.imgur.com.this, DNS:sync.adaptv.advertising.com.this, DNS:s.amazon-adsystem.com.this, DNS:fls-na.amazon.com.this, DNS:sync.rhythmxchange.com.this, DNS:bh.contextweb.com.this, DNS:www.apple.com.this, DNS:www.burstnet.com.this, DNS:fonts.gstatic.com.this, DNS:geo-um.btrll.com.this, DNS:t4.liverail.com.this, DNS:s.media-imdb.com.this, DNS:image5.pubmatic.com.this, DNS:www.facebook.com.this, DNS:ads.yahoo.com.this, DNS:bnc.lt.this, DNS:images-na.ssl-images-amazon.com.this, DNS:upload.wikimedia.org.this, DNS:us-u.openx.net.this, DNS:a.this, DNS:clien.net.this, DNS:*.clien.net.this, DNS:*.a.this, IP Address:127.0.0.1
    Signature Algorithm: sha256WithRSAEncryption
        95:9a:33:58:9b:0e:b3:39:e8:8a:b9:b6:ef:e3:e8:c0:a8:d6:
        57:cb:cf:b7:34:1a:2d:7a:78:9d:f9:4d:03:77:f8:45:06:75:
        3a:4a:11:fc:b5:99:97:f0:55:1b:58:66:f0:24:92:cc:40:2a:
        86:46:c7:a0:8f:b4:83:77:3f:6c:75:e1:70:ad:9d:ef:b0:c4:
        8e:50:df:79:6b:c8:ac:39:1e:6c:f3:9a:a6:78:94:76:b3:46:
        e8:05:9d:1d:65:b9:b0:3f:d6:d5:a6:97:25:1f:69:bd:70:08:
        c6:74:ed:0e:cd:5e:1a:ca:77:e5:0a:c2:33:5f:c0:78:93:ae:
        01:98:4b:a3:81:1d:16:37:99:49:28:aa:c6:49:b3:aa:33:a7:
        3e:f4:e0:22:75:6f:36:29:b4:62:84:02:18:76:70:35:b8:7f:
        60:aa:d3:84:a3:c2:ab:4e:69:24:ee:11:6b:82:13:2e:3a:05:
        d4:18:e3:c0:ad:9d:a0:b5:40:9a:65:1f:4d:25:cf:c3:6a:3e:
        0f:c9:5f:83:da:8c:26:83:19:85:06:93:51:3a:f6:4b:87:5b:
        91:4f:d7:1f:6b:96:ac:1c:79:b3:bf:2c:84:25:66:cc:1a:7b:
        6f:05:97:f5:13:bc:6e:49:d7:07:68:d7:28:cb:64:1d:d7:26:
        d1:a8:9f:69
-----BEGIN CERTIFICATE-----
MIIIFjCCBv6gAwIBAgIBCzANBgkqhkiG9w0BAQsFADAeMRwwGgYDVQQDDBNRVUlD
IFNlcnZlciBSb290IENBMB4XDTE2MDYwNjAzMzcyMVoXDTE2MDcwNjAzMzcyMVow
YTELMAkGA1UEBhMCVVMxEzARBgNVBAgMCkNhbGlmb3JuaWExFjAUBgNVBAcMDU1v
dW50YWluIFZpZXcxFDASBgNVBAoMC1FVSUMgU2VydmVyMQ8wDQYDVQQDDAZhLnRo
aXMwggEiMA0GCSqGSIb3DQEBAQUAA4IBDwAwggEKAoIBAQDFGOVMZHTG+Q6H1pVh
oXjszlItmt0ilwNSd9opeKesa7Y3vqacySvRUFb0udhkv9XzkhQMVEh9po49BG0D
gsYsBVoulO7sJMc1M0NXOVQ/VtOyHtZUbmzzBZ1plMCoY4TJITj2KhPGmlkUewWD
m7Jcr6oCNdNaPjaxTvTzrGZ+jBg9ecN1CcBNYk/eQU2jpQeNXeqPL2WZiiilF2fT
xmxAgZ2nlWCSagqTg9oUVhFLhRJjf2Zkrakk4m3jScfr/DMYdUvK4Y+nAtQ+afwp
8s032R71SStpC4wZnzrt5At9ZsVbGCvDqIpd9QRZQyC49sQBnsBDf1eTjNDFa1uh
K6x9AgMBAAGjggUaMIIFFjAMBgNVHRMBAf8EAjAAMB0GA1UdDgQWBBTkZSHQbUCh
U4TnlGS24ehb7Db78TAfBgNVHSMEGDAWgBT0M90WZujO6neTjY5ZvVNW2dnYITAd
BgNVHSUEFjAUBggrBgEFBQcDAQYIKwYBBQUHAwIwggSlBgNVHREEggScMIIEmIIY
bG9naW4ud2lraW1lZGlhLm9yZy50aGlzghlzc3VtLmNhc2FsZW1lZGlhLmNvbS50
aGlzghJhcGkuYnJhbmNoLmlvLnRoaXOCIXBhcnRuZXIuZ29vZ2xlYWRzZXJ2aWNl
cy5jb20udGhpc4IXZW4ubS53aWtpcGVkaWEub3JnLnRoaXOCGWNtLmcuZG91Ymxl
Y2xpY2submV0LnRoaXOCE3d3dy5hbWF6b24uY29tLnRoaXOCF2EudGhvdWdodGxl
YWRyLmNvbS50aGlzgh13d3cuZ29vZ2xlLWFuYWx5dGljcy5jb20udGhpc4IkYWF4
LXVzLWVhc3QuYW1hem9uLWFkc3lzdGVtLmNvbS50aGlzghZpYS5tZWRpYS1pbWRi
LmNvbS50aGlzgh50cGMuZ29vZ2xlc3luZGljYXRpb24uY29tLnRoaXOCEG0uaW1n
dXIuY29tLnRoaXOCIHN5bmMuc2VhcmNoLnNwb3R4Y2hhbmdlLmNvbS50aGlzgg9t
LmltZGIuY29tLnRoaXOCHnNob3Bib3Auc3AxLmNvbnZlcnRyby5jb20udGhpc4IZ
Zm9udHMuZ29vZ2xlYXBpcy5jb20udGhpc4IQaS5pbWd1ci5jb20udGhpc4IRaWIu
YWRueHMuY29tLnRoaXOCHXNiLnNjb3JlY2FyZHJlc2VhcmNoLmNvbS50aGlzgh53
d3cuZ29vZ2xldGFnc2VydmljZXMuY29tLnRoaXOCG3RhcC5ydWJpY29ucHJvamVj
dC5jb20udGhpc4IQc3luYy4xcnguaW8udGhpc4IZcGl4ZWwucXVhbnRzZXJ2ZS5j
b20udGhpc4IVdW1zLmFkdGVjaHVzLmNvbS50aGlzghJhcGkuaW1ndXIuY29tLnRo
aXOCIHN5bmMuYWRhcHR2LmFkdmVydGlzaW5nLmNvbS50aGlzghpzLmFtYXpvbi1h
ZHN5c3RlbS5jb20udGhpc4IWZmxzLW5hLmFtYXpvbi5jb20udGhpc4Ibc3luYy5y
aHl0aG14Y2hhbmdlLmNvbS50aGlzghZiaC5jb250ZXh0d2ViLmNvbS50aGlzghJ3
d3cuYXBwbGUuY29tLnRoaXOCFXd3dy5idXJzdG5ldC5jb20udGhpc4IWZm9udHMu
Z3N0YXRpYy5jb20udGhpc4IVZ2VvLXVtLmJ0cmxsLmNvbS50aGlzghR0NC5saXZl
cmFpbC5jb20udGhpc4IVcy5tZWRpYS1pbWRiLmNvbS50aGlzghhpbWFnZTUucHVi
bWF0aWMuY29tLnRoaXOCFXd3dy5mYWNlYm9vay5jb20udGhpc4ISYWRzLnlhaG9v
LmNvbS50aGlzggtibmMubHQudGhpc4IkaW1hZ2VzLW5hLnNzbC1pbWFnZXMtYW1h
em9uLmNvbS50aGlzghl1cGxvYWQud2lraW1lZGlhLm9yZy50aGlzghN1cy11Lm9w
ZW54Lm5ldC50aGlzggZhLnRoaXOCDmNsaWVuLm5ldC50aGlzghAqLmNsaWVuLm5l
dC50aGlzgggqLmEudGhpc4cEfwAAATANBgkqhkiG9w0BAQsFAAOCAQEAlZozWJsO
sznoirm27+PowKjWV8vPtzQaLXp4nflNA3f4RQZ1OkoR/LWZl/BVG1hm8CSSzEAq
hkbHoI+0g3c/bHXhcK2d77DEjlDfeWvIrDkebPOapniUdrNG6AWdHWW5sD/W1aaX
JR9pvXAIxnTtDs1eGsp35QrCM1/AeJOuAZhLo4EdFjeZSSiqxkmzqjOnPvTgInVv
Nim0YoQCGHZwNbh/YKrThKPCq05pJO4Ra4ITLjoF1BjjwK2doLVAmmUfTSXPw2o+
D8lfg9qMJoMZhQaTUTr2S4dbkU/XH2uWrBx5s78shCVmzBp7bwWX9RO8bknXB2jX
KMtkHdcm0aifaQ==
-----END CERTIFICATE-----
