Certificate:
    Data:
        Version: 3 (0x2)
        Serial Number: 12 (0xc)
        Signature Algorithm: sha256WithRSAEncryption
        Issuer: CN=QUIC Server Root CA
        Validity
            Not Before: Jun  6 05:34:43 2016 GMT
            Not After : Jul  6 05:34:43 2016 GMT
        Subject: C=US, ST=California, L=Mountain View, O=QUIC Server, CN=a.this
        Subject Public Key Info:
            Public Key Algorithm: rsaEncryption
            RSA Public Key: (2048 bit)
                Modulus (2048 bit):
                    00:e7:30:b2:64:83:54:2d:e2:bb:62:7b:f1:77:6e:
                    3c:d2:22:68:1f:20:61:f9:c8:c2:56:09:a8:b0:1b:
                    a5:2d:d6:f9:9a:89:2f:ed:74:11:c2:db:39:45:44:
                    aa:a4:67:7c:09:64:a3:f5:a8:7e:88:9e:d8:f9:6b:
                    40:5b:e0:9f:ff:9a:22:2b:b9:f5:47:e1:11:e0:39:
                    4d:ba:6e:a3:29:5c:35:1f:fb:c2:3b:5f:5f:af:5f:
                    d8:0b:d2:4c:b6:90:49:12:6c:ec:a9:48:11:bb:71:
                    29:1b:9b:b6:42:9e:dc:07:42:0a:58:fd:4f:28:71:
                    a6:b7:4f:3d:da:83:8d:ca:ed:9d:e6:7d:e2:09:0f:
                    cb:c9:cb:8f:70:3b:67:22:4f:b3:a6:9a:2c:21:b5:
                    a7:7a:87:db:8c:68:0f:4a:6e:d1:11:a5:cb:86:db:
                    47:50:29:b6:f6:43:27:20:0f:ee:2d:b5:01:84:6e:
                    f0:26:a9:c7:22:04:06:94:a5:19:8c:55:43:3d:0d:
                    56:7c:55:0e:0f:4a:9b:a8:c5:66:19:c3:22:25:0d:
                    28:c4:8e:de:87:9a:be:7a:96:b9:60:b7:da:6d:39:
                    45:10:d2:1c:c4:6b:d0:cb:2c:bc:1f:63:4b:d4:d1:
                    b1:3f:41:3d:ee:71:4c:0d:2b:44:a4:07:87:cb:21:
                    e8:7d
                Exponent: 65537 (0x10001)
        X509v3 extensions:
            X509v3 Basic Constraints: critical
                CA:FALSE
            X509v3 Subject Key Identifier: 
                5F:27:0B:93:1B:34:A2:D6:F5:42:99:67:F2:82:B0:95:2B:CC:CF:50
            X509v3 Authority Key Identifier: 
                keyid:F4:33:DD:16:66:E8:CE:EA:77:93:8D:8E:59:BD:53:56:D9:D9:D8:21

            X509v3 Extended Key Usage: 
                TLS Web Server Authentication, TLS Web Client Authentication
            X509v3 Subject Alternative Name: 
                DNS:ssum.casalemedia.com, DNS:api.branch.io, DNS:cm.g.doubleclick.net, DNS:www.amazon.com, DNS:www.burstnet.com, DNS:sync.rhythmxchange.com, DNS:aax-us-east.amazon-adsystem.com, DNS:ia.media-imdb.com, DNS:tpc.googlesyndication.com, DNS:sync.search.spotxchange.com, DNS:m.imgur.com, DNS:bnc.lt, DNS:m.imdb.com, DNS:shopbop.sp1.convertro.com, DNS:fonts.googleapis.com, DNS:i.imgur.com, DNS:ib.adnxs.com, DNS:sb.scorecardresearch.com, DNS:partner.googleadservices.com, DNS:api.imgur.com, DNS:pixel.quantserve.com, DNS:ums.adtechus.com, DNS:images-na.ssl-images-amazon.com, DNS:sync.adaptv.advertising.com, DNS:s.amazon-adsystem.com, DNS:fls-na.amazon.com, DNS:www.googletagservices.com, DNS:bh.contextweb.com, DNS:www.apple.com, DNS:a.thoughtleadr.com, DNS:fonts.gstatic.com, DNS:geo-um.btrll.com, DNS:t4.liverail.com, DNS:s.media-imdb.com, DNS:image5.pubmatic.com, DNS:tap.rubiconproject.com, DNS:www.facebook.com, DNS:ads.yahoo.com, DNS:sync.1rx.io, DNS:www.google-analytics.com, DNS:us-u.openx.net, DNS:a.this, DNS:clien.net.this, DNS:*.clien.net.this, DNS:*.a.this, IP Address:127.0.0.1
    Signature Algorithm: sha256WithRSAEncryption
        0f:67:c1:b2:fb:d2:86:ef:a9:63:47:1a:ba:62:4e:4a:23:e8:
        18:87:f7:ac:9c:a7:6d:54:e7:87:86:0f:be:c9:02:c6:54:e3:
        74:06:fc:25:f2:ec:4f:37:a6:5f:7b:73:ab:c1:38:68:51:79:
        6c:57:e4:1c:0a:b7:b2:14:ae:4f:93:3a:89:62:ae:da:5e:56:
        3a:9e:dd:e6:f8:8b:65:ef:25:a7:3d:38:07:be:0c:4c:e9:01:
        e6:a3:36:ee:ef:38:80:7f:79:2d:a1:1a:dd:12:86:fb:3a:b0:
        29:9a:be:8a:37:91:df:ce:49:b6:8e:70:d4:25:81:bc:c7:d5:
        e9:35:e2:41:18:66:d2:04:d2:32:ff:3b:c9:92:74:cb:44:9a:
        c6:1d:4a:6e:15:a8:f7:9a:65:79:3b:b8:05:15:cc:19:c4:d6:
        fd:dc:cd:08:2d:86:46:0c:b6:43:7f:97:81:f5:65:c8:89:8d:
        57:0c:fe:ab:cc:7e:3e:68:df:ab:07:d9:7b:c9:cb:0a:32:0f:
        d8:6c:c4:3a:88:0f:6e:8d:fc:bd:ab:23:95:f7:63:ec:bf:38:
        95:56:1a:ff:57:77:19:30:9e:35:39:99:e6:53:7d:6c:bd:e3:
        de:40:e3:83:cc:e3:9d:3f:39:85:17:11:3b:c1:1b:83:78:26:
        3c:bf:40:2d
-----BEGIN CERTIFICATE-----
MIIG+zCCBeOgAwIBAgIBDDANBgkqhkiG9w0BAQsFADAeMRwwGgYDVQQDDBNRVUlD
IFNlcnZlciBSb290IENBMB4XDTE2MDYwNjA1MzQ0M1oXDTE2MDcwNjA1MzQ0M1ow
YTELMAkGA1UEBhMCVVMxEzARBgNVBAgMCkNhbGlmb3JuaWExFjAUBgNVBAcMDU1v
dW50YWluIFZpZXcxFDASBgNVBAoMC1FVSUMgU2VydmVyMQ8wDQYDVQQDDAZhLnRo
aXMwggEiMA0GCSqGSIb3DQEBAQUAA4IBDwAwggEKAoIBAQDnMLJkg1Qt4rtie/F3
bjzSImgfIGH5yMJWCaiwG6Ut1vmaiS/tdBHC2zlFRKqkZ3wJZKP1qH6Intj5a0Bb
4J//miIrufVH4RHgOU26bqMpXDUf+8I7X1+vX9gL0ky2kEkSbOypSBG7cSkbm7ZC
ntwHQgpY/U8ocaa3Tz3ag43K7Z3mfeIJD8vJy49wO2ciT7Ommiwhtad6h9uMaA9K
btERpcuG20dQKbb2QycgD+4ttQGEbvAmqcciBAaUpRmMVUM9DVZ8VQ4PSpuoxWYZ
wyIlDSjEjt6Hmr56lrlgt9ptOUUQ0hzEa9DLLLwfY0vU0bE/QT3ucUwNK0SkB4fL
Ieh9AgMBAAGjggP/MIID+zAMBgNVHRMBAf8EAjAAMB0GA1UdDgQWBBRfJwuTGzSi
1vVCmWfygrCVK8zPUDAfBgNVHSMEGDAWgBT0M90WZujO6neTjY5ZvVNW2dnYITAd
BgNVHSUEFjAUBggrBgEFBQcDAQYIKwYBBQUHAwIwggOKBgNVHREEggOBMIIDfYIU
c3N1bS5jYXNhbGVtZWRpYS5jb22CDWFwaS5icmFuY2guaW+CFGNtLmcuZG91Ymxl
Y2xpY2submV0gg53d3cuYW1hem9uLmNvbYIQd3d3LmJ1cnN0bmV0LmNvbYIWc3lu
Yy5yaHl0aG14Y2hhbmdlLmNvbYIfYWF4LXVzLWVhc3QuYW1hem9uLWFkc3lzdGVt
LmNvbYIRaWEubWVkaWEtaW1kYi5jb22CGXRwYy5nb29nbGVzeW5kaWNhdGlvbi5j
b22CG3N5bmMuc2VhcmNoLnNwb3R4Y2hhbmdlLmNvbYILbS5pbWd1ci5jb22CBmJu
Yy5sdIIKbS5pbWRiLmNvbYIZc2hvcGJvcC5zcDEuY29udmVydHJvLmNvbYIUZm9u
dHMuZ29vZ2xlYXBpcy5jb22CC2kuaW1ndXIuY29tggxpYi5hZG54cy5jb22CGHNi
LnNjb3JlY2FyZHJlc2VhcmNoLmNvbYIccGFydG5lci5nb29nbGVhZHNlcnZpY2Vz
LmNvbYINYXBpLmltZ3VyLmNvbYIUcGl4ZWwucXVhbnRzZXJ2ZS5jb22CEHVtcy5h
ZHRlY2h1cy5jb22CH2ltYWdlcy1uYS5zc2wtaW1hZ2VzLWFtYXpvbi5jb22CG3N5
bmMuYWRhcHR2LmFkdmVydGlzaW5nLmNvbYIVcy5hbWF6b24tYWRzeXN0ZW0uY29t
ghFmbHMtbmEuYW1hem9uLmNvbYIZd3d3Lmdvb2dsZXRhZ3NlcnZpY2VzLmNvbYIR
YmguY29udGV4dHdlYi5jb22CDXd3dy5hcHBsZS5jb22CEmEudGhvdWdodGxlYWRy
LmNvbYIRZm9udHMuZ3N0YXRpYy5jb22CEGdlby11bS5idHJsbC5jb22CD3Q0Lmxp
dmVyYWlsLmNvbYIQcy5tZWRpYS1pbWRiLmNvbYITaW1hZ2U1LnB1Ym1hdGljLmNv
bYIWdGFwLnJ1Ymljb25wcm9qZWN0LmNvbYIQd3d3LmZhY2Vib29rLmNvbYINYWRz
LnlhaG9vLmNvbYILc3luYy4xcnguaW+CGHd3dy5nb29nbGUtYW5hbHl0aWNzLmNv
bYIOdXMtdS5vcGVueC5uZXSCBmEudGhpc4IOY2xpZW4ubmV0LnRoaXOCECouY2xp
ZW4ubmV0LnRoaXOCCCouYS50aGlzhwR/AAABMA0GCSqGSIb3DQEBCwUAA4IBAQAP
Z8Gy+9KG76ljRxq6Yk5KI+gYh/esnKdtVOeHhg++yQLGVON0Bvwl8uxPN6Zfe3Or
wThoUXlsV+QcCreyFK5PkzqJYq7aXlY6nt3m+Itl7yWnPTgHvgxM6QHmozbu7ziA
f3ktoRrdEob7OrApmr6KN5Hfzkm2jnDUJYG8x9XpNeJBGGbSBNIy/zvJknTLRJrG
HUpuFaj3mmV5O7gFFcwZxNb93M0ILYZGDLZDf5eB9WXIiY1XDP6rzH4+aN+rB9l7
ycsKMg/YbMQ6iA9ujfy9qyOV92PsvziVVhr/V3cZMJ41OZnmU31svePeQOODzOOd
PzmFFxE7wRuDeCY8v0At
-----END CERTIFICATE-----
