Certificate:
    Data:
        Version: 3 (0x2)
        Serial Number: 13 (0xd)
        Signature Algorithm: sha256WithRSAEncryption
        Issuer: CN=QUIC Server Root CA
        Validity
            Not Before: Jun  6 05:48:38 2016 GMT
            Not After : Jul  6 05:48:38 2016 GMT
        Subject: C=US, ST=California, L=Mountain View, O=QUIC Server, CN=a.this
        Subject Public Key Info:
            Public Key Algorithm: rsaEncryption
            RSA Public Key: (2048 bit)
                Modulus (2048 bit):
                    00:ce:58:75:7a:16:bb:50:83:98:e5:47:7f:2a:9b:
                    b0:b0:1b:9f:06:e7:2f:f2:bc:27:da:3d:7a:3b:07:
                    79:21:ca:19:e5:12:f9:79:b9:5b:d2:90:aa:66:7e:
                    52:37:a5:f6:6e:5e:f6:2e:98:29:cd:6a:db:d2:a0:
                    6e:e1:b7:3b:ba:81:5b:4f:b9:01:0f:9b:d4:0b:1d:
                    8e:17:8f:1a:a4:8e:18:8e:56:b4:08:0d:3b:04:3b:
                    48:86:b8:b1:f9:cd:41:00:ca:c3:37:b0:c0:4a:f9:
                    09:3f:6f:4a:ab:75:36:2e:14:dc:c6:af:00:16:6f:
                    fc:89:bf:5e:c3:46:40:78:88:6c:2b:7f:0e:0e:2b:
                    5c:01:d4:b9:45:b7:0c:1f:c9:bc:1f:3d:2a:b8:93:
                    46:6c:74:66:6d:69:d4:2e:e6:54:21:24:fc:0c:a9:
                    b9:d0:5c:1d:d5:0f:f6:dd:b5:32:13:ef:c0:74:d2:
                    2f:11:48:e5:dd:ea:07:c2:99:9f:e3:d8:36:2e:95:
                    ba:a3:60:45:43:6e:3e:d5:b5:99:b6:26:34:88:ac:
                    af:bc:90:73:16:b6:9b:40:85:20:68:65:56:31:f4:
                    02:4e:bd:4c:06:7c:d1:c1:5c:03:b6:a0:ff:a5:28:
                    55:ac:a8:ed:0c:2e:ac:45:4a:df:a0:4b:6b:4b:0a:
                    c5:61
                Exponent: 65537 (0x10001)
        X509v3 extensions:
            X509v3 Basic Constraints: critical
                CA:FALSE
            X509v3 Subject Key Identifier: 
                F0:F0:17:83:8F:AE:84:7A:D2:B2:60:3C:3A:C1:AD:3C:F1:E1:39:D8
            X509v3 Authority Key Identifier: 
                keyid:F4:33:DD:16:66:E8:CE:EA:77:93:8D:8E:59:BD:53:56:D9:D9:D8:21

            X509v3 Extended Key Usage: 
                TLS Web Server Authentication, TLS Web Client Authentication
            X509v3 Subject Alternative Name: 
                DNS:ssum.casalemedia.com, DNS:api.branch.io, DNS:cm.g.doubleclick.net, DNS:www.amazon.com, DNS:www.burstnet.com, DNS:sync.rhythmxchange.com, DNS:g-ecx.images-amazon.com, DNS:aax-us-east.amazon-adsystem.com, DNS:metrics.apple.com, DNS:ia.media-imdb.com, DNS:tpc.googlesyndication.com, DNS:sync.search.spotxchange.com, DNS:m.imgur.com, DNS:images-na.ssl-images-amazon.com, DNS:bnc.lt, DNS:m.imdb.com, DNS:shopbop.sp1.convertro.com, DNS:i.imgur.com, DNS:fonts.googleapis.com, DNS:b.scorecardresearch.com, DNS:ib.adnxs.com, DNS:s.media-imdb.com, DNS:api.imgur.com, DNS:pixel.quantserve.com, DNS:ums.adtechus.com, DNS:z-ecx.images-amazon.com, DNS:sync.adaptv.advertising.com, DNS:s.amazon-adsystem.com, DNS:fls-na.amazon.com, DNS:www.googletagservices.com, DNS:bh.contextweb.com, DNS:www.apple.com, DNS:images.apple.com, DNS:a.thoughtleadr.com, DNS:fonts.gstatic.com, DNS:geo-um.btrll.com, DNS:t4.liverail.com, DNS:partner.googleadservices.com, DNS:image5.pubmatic.com, DNS:tap.rubiconproject.com, DNS:www.facebook.com, DNS:ecx.images-amazon.com, DNS:ads.yahoo.com, DNS:sync.1rx.io, DNS:www.google-analytics.com, DNS:us-u.openx.net, DNS:a.this, DNS:clien.net.this, DNS:*.clien.net.this, DNS:*.a.this, IP Address:127.0.0.1
    Signature Algorithm: sha256WithRSAEncryption
        9e:9c:b7:d8:b9:67:b7:b6:24:6d:82:62:ad:fe:b9:0c:4f:03:
        32:6b:b8:cf:b5:23:50:e5:e1:66:a8:31:ea:20:51:1b:16:b1:
        f6:20:de:88:ed:6d:5c:8b:31:ad:ad:0e:cd:76:7b:1a:6f:6a:
        99:9e:53:51:1b:01:bb:f2:b7:39:77:6d:80:b5:e2:49:57:1f:
        d4:b4:c0:7f:64:09:72:5d:99:e4:5e:44:1d:37:e4:f4:6d:5f:
        09:83:10:19:b8:5f:52:1b:34:47:d9:4a:e3:b3:cd:3d:71:2a:
        1e:6f:c7:c2:ab:41:5e:65:b1:b6:f9:8b:a7:48:d1:06:66:1a:
        e9:7c:6b:44:55:2c:f9:eb:a7:7c:c9:90:d7:18:4d:f1:33:54:
        4c:ee:49:bf:b6:38:e3:56:15:32:17:6c:a8:b0:ec:a4:d5:b5:
        bd:f4:99:64:b9:25:c4:ff:13:76:ef:62:4f:fd:13:49:69:ec:
        e3:c5:87:c8:ec:fb:eb:ae:e1:97:32:8b:b0:de:6f:6a:89:99:
        82:6f:6d:f1:bc:0c:96:40:f2:3e:5d:d5:12:be:f1:87:17:7c:
        7c:37:c6:17:f6:d1:71:01:04:83:eb:68:0f:63:7f:77:b8:58:
        1f:68:cf:da:85:2e:4a:8b:f2:19:47:f1:8b:9c:94:ff:33:4f:
        73:85:aa:89
-----BEGIN CERTIFICATE-----
MIIHaDCCBlCgAwIBAgIBDTANBgkqhkiG9w0BAQsFADAeMRwwGgYDVQQDDBNRVUlD
IFNlcnZlciBSb290IENBMB4XDTE2MDYwNjA1NDgzOFoXDTE2MDcwNjA1NDgzOFow
YTELMAkGA1UEBhMCVVMxEzARBgNVBAgMCkNhbGlmb3JuaWExFjAUBgNVBAcMDU1v
dW50YWluIFZpZXcxFDASBgNVBAoMC1FVSUMgU2VydmVyMQ8wDQYDVQQDDAZhLnRo
aXMwggEiMA0GCSqGSIb3DQEBAQUAA4IBDwAwggEKAoIBAQDOWHV6FrtQg5jlR38q
m7CwG58G5y/yvCfaPXo7B3khyhnlEvl5uVvSkKpmflI3pfZuXvYumCnNatvSoG7h
tzu6gVtPuQEPm9QLHY4XjxqkjhiOVrQIDTsEO0iGuLH5zUEAysM3sMBK+Qk/b0qr
dTYuFNzGrwAWb/yJv17DRkB4iGwrfw4OK1wB1LlFtwwfybwfPSq4k0ZsdGZtadQu
5lQhJPwMqbnQXB3VD/bdtTIT78B00i8RSOXd6gfCmZ/j2DYulbqjYEVDbj7VtZm2
JjSIrK+8kHMWtptAhSBoZVYx9AJOvUwGfNHBXAO2oP+lKFWsqO0MLqxFSt+gS2tL
CsVhAgMBAAGjggRsMIIEaDAMBgNVHRMBAf8EAjAAMB0GA1UdDgQWBBTw8BeDj66E
etKyYDw6wa088eE52DAfBgNVHSMEGDAWgBT0M90WZujO6neTjY5ZvVNW2dnYITAd
BgNVHSUEFjAUBggrBgEFBQcDAQYIKwYBBQUHAwIwggP3BgNVHREEggPuMIID6oIU
c3N1bS5jYXNhbGVtZWRpYS5jb22CDWFwaS5icmFuY2guaW+CFGNtLmcuZG91Ymxl
Y2xpY2submV0gg53d3cuYW1hem9uLmNvbYIQd3d3LmJ1cnN0bmV0LmNvbYIWc3lu
Yy5yaHl0aG14Y2hhbmdlLmNvbYIXZy1lY3guaW1hZ2VzLWFtYXpvbi5jb22CH2Fh
eC11cy1lYXN0LmFtYXpvbi1hZHN5c3RlbS5jb22CEW1ldHJpY3MuYXBwbGUuY29t
ghFpYS5tZWRpYS1pbWRiLmNvbYIZdHBjLmdvb2dsZXN5bmRpY2F0aW9uLmNvbYIb
c3luYy5zZWFyY2guc3BvdHhjaGFuZ2UuY29tggttLmltZ3VyLmNvbYIfaW1hZ2Vz
LW5hLnNzbC1pbWFnZXMtYW1hem9uLmNvbYIGYm5jLmx0ggptLmltZGIuY29tghlz
aG9wYm9wLnNwMS5jb252ZXJ0cm8uY29tggtpLmltZ3VyLmNvbYIUZm9udHMuZ29v
Z2xlYXBpcy5jb22CF2Iuc2NvcmVjYXJkcmVzZWFyY2guY29tggxpYi5hZG54cy5j
b22CEHMubWVkaWEtaW1kYi5jb22CDWFwaS5pbWd1ci5jb22CFHBpeGVsLnF1YW50
c2VydmUuY29tghB1bXMuYWR0ZWNodXMuY29tghd6LWVjeC5pbWFnZXMtYW1hem9u
LmNvbYIbc3luYy5hZGFwdHYuYWR2ZXJ0aXNpbmcuY29tghVzLmFtYXpvbi1hZHN5
c3RlbS5jb22CEWZscy1uYS5hbWF6b24uY29tghl3d3cuZ29vZ2xldGFnc2Vydmlj
ZXMuY29tghFiaC5jb250ZXh0d2ViLmNvbYINd3d3LmFwcGxlLmNvbYIQaW1hZ2Vz
LmFwcGxlLmNvbYISYS50aG91Z2h0bGVhZHIuY29tghFmb250cy5nc3RhdGljLmNv
bYIQZ2VvLXVtLmJ0cmxsLmNvbYIPdDQubGl2ZXJhaWwuY29tghxwYXJ0bmVyLmdv
b2dsZWFkc2VydmljZXMuY29tghNpbWFnZTUucHVibWF0aWMuY29tghZ0YXAucnVi
aWNvbnByb2plY3QuY29tghB3d3cuZmFjZWJvb2suY29tghVlY3guaW1hZ2VzLWFt
YXpvbi5jb22CDWFkcy55YWhvby5jb22CC3N5bmMuMXJ4Lmlvghh3d3cuZ29vZ2xl
LWFuYWx5dGljcy5jb22CDnVzLXUub3BlbngubmV0ggZhLnRoaXOCDmNsaWVuLm5l
dC50aGlzghAqLmNsaWVuLm5ldC50aGlzgggqLmEudGhpc4cEfwAAATANBgkqhkiG
9w0BAQsFAAOCAQEAnpy32Llnt7YkbYJirf65DE8DMmu4z7UjUOXhZqgx6iBRGxax
9iDeiO1tXIsxra0OzXZ7Gm9qmZ5TURsBu/K3OXdtgLXiSVcf1LTAf2QJcl2Z5F5E
HTfk9G1fCYMQGbhfUhs0R9lK47PNPXEqHm/HwqtBXmWxtvmLp0jRBmYa6XxrRFUs
+eunfMmQ1xhN8TNUTO5Jv7Y441YVMhdsqLDspNW1vfSZZLklxP8Tdu9iT/0TSWns
48WHyOz7667hlzKLsN5vaomZgm9t8bwMlkDyPl3VEr7xhxd8fDfGF/bRcQEEg+to
D2N/d7hYH2jP2oUuSovyGUfxi5yU/zNPc4WqiQ==
-----END CERTIFICATE-----
