Certificate:
    Data:
        Version: 3 (0x2)
        Serial Number: 15 (0xf)
        Signature Algorithm: sha256WithRSAEncryption
        Issuer: CN=QUIC Server Root CA
        Validity
            Not Before: Jun  6 06:26:19 2016 GMT
            Not After : Jul  6 06:26:19 2016 GMT
        Subject: C=US, ST=California, L=Mountain View, O=QUIC Server, CN=a.this
        Subject Public Key Info:
            Public Key Algorithm: rsaEncryption
            RSA Public Key: (2048 bit)
                Modulus (2048 bit):
                    00:b3:41:dd:48:e8:0d:33:18:5d:86:67:75:ce:fe:
                    95:85:9b:65:d2:95:b7:24:5e:d9:f3:c3:a5:0f:ee:
                    ee:48:8e:65:d5:cc:f5:66:f3:bb:60:e9:0b:fd:ff:
                    f3:92:eb:e4:47:3d:21:ba:03:db:a3:d0:2f:8d:ad:
                    2b:5c:fb:08:68:63:85:73:f5:b1:ce:10:1c:57:c3:
                    90:cc:a3:55:0b:23:22:5d:5f:9e:98:04:af:e3:dc:
                    0f:40:b3:9c:6b:3e:7f:4c:59:35:81:1d:ed:ad:f9:
                    02:6d:0e:a3:77:15:b2:ba:63:f7:d2:10:ae:eb:ad:
                    11:8f:13:ee:1d:b2:d8:66:0c:8c:f8:c8:81:4a:34:
                    b9:cf:cc:61:6c:b4:4c:4e:ba:13:ef:fb:9f:89:34:
                    58:2f:1a:6d:d2:24:4f:d2:5c:ce:e1:18:7d:6d:ab:
                    db:b3:08:d6:17:aa:a4:c4:ed:0c:7b:66:a1:cc:19:
                    39:18:aa:10:f0:13:55:87:fd:3d:8e:53:63:fc:38:
                    26:90:27:b6:b5:e0:28:e6:cf:f7:c1:68:0d:d5:6d:
                    9b:a6:5c:a1:db:79:e0:85:33:85:52:3b:c7:ca:14:
                    66:75:21:b4:42:c9:a5:0f:aa:dc:11:72:17:79:53:
                    32:5e:9b:6f:75:e1:29:e0:9d:b1:73:12:85:c5:97:
                    4b:7d
                Exponent: 65537 (0x10001)
        X509v3 extensions:
            X509v3 Basic Constraints: critical
                CA:FALSE
            X509v3 Subject Key Identifier: 
                2F:47:AA:D8:58:C5:5A:B0:79:11:60:82:33:18:8F:54:97:2B:4E:81
            X509v3 Authority Key Identifier: 
                keyid:F4:33:DD:16:66:E8:CE:EA:77:93:8D:8E:59:BD:53:56:D9:D9:D8:21

            X509v3 Extended Key Usage: 
                TLS Web Server Authentication, TLS Web Client Authentication
            X509v3 Subject Alternative Name: 
                DNS:ssum.casalemedia.com.this, DNS:api.branch.io.this, DNS:cm.g.doubleclick.net.this, DNS:www.amazon.com.this, DNS:www.burstnet.com.this, DNS:sync.rhythmxchange.com.this, DNS:g-ecx.images-amazon.com.this, DNS:aax-us-east.amazon-adsystem.com.this, DNS:metrics.apple.com.this, DNS:ia.media-imdb.com.this, DNS:tpc.googlesyndication.com.this, DNS:sync.search.spotxchange.com.this, DNS:m.imgur.com.this, DNS:images-na.ssl-images-amazon.com.this, DNS:bnc.lt.this, DNS:m.imdb.com.this, DNS:shopbop.sp1.convertro.com.this, DNS:i.imgur.com.this, DNS:fonts.googleapis.com.this, DNS:b.scorecardresearch.com.this, DNS:ib.adnxs.com.this, DNS:s.media-imdb.com.this, DNS:api.imgur.com.this, DNS:pixel.quantserve.com.this, DNS:ums.adtechus.com.this, DNS:z-ecx.images-amazon.com.this, DNS:sync.adaptv.advertising.com.this, DNS:s.amazon-adsystem.com.this, DNS:fls-na.amazon.com.this, DNS:www.googletagservices.com.this, DNS:bh.contextweb.com.this, DNS:www.apple.com.this, DNS:images.apple.com.this, DNS:a.thoughtleadr.com.this, DNS:fonts.gstatic.com.this, DNS:geo-um.btrll.com.this, DNS:t4.liverail.com.this, DNS:partner.googleadservices.com.this, DNS:image5.pubmatic.com.this, DNS:tap.rubiconproject.com.this, DNS:www.facebook.com.this, DNS:ecx.images-amazon.com.this, DNS:ads.yahoo.com.this, DNS:sync.1rx.io.this, DNS:www.google-analytics.com.this, DNS:us-u.openx.net.this, DNS:a.this, DNS:clien.net.this, DNS:*.clien.net.this, DNS:*.a.this, IP Address:127.0.0.1
    Signature Algorithm: sha256WithRSAEncryption
        04:21:d4:58:30:13:90:8b:72:a1:90:48:6b:c1:ad:ae:4e:f6:
        75:66:d8:15:c8:85:46:0f:82:3c:2b:a3:62:a4:a2:8d:9d:4e:
        3e:b0:6b:ee:72:75:f4:eb:dd:fe:6b:b0:cd:6f:b3:05:76:a0:
        00:0e:55:4d:5f:01:a4:d3:f9:a7:0e:cc:13:6d:ce:40:39:e2:
        1c:6c:dd:95:44:51:85:29:0c:3b:6c:38:8f:9a:cf:7c:53:61:
        0b:bf:62:3a:c5:5f:d2:2d:2a:8e:3f:19:59:dd:d9:52:c2:0f:
        61:c4:24:58:47:b9:53:30:10:14:e5:5a:69:4d:bc:2a:cc:ca:
        c8:fb:c2:ee:ca:66:27:97:67:a3:a5:8b:15:f6:ae:ad:76:4f:
        20:72:eb:d3:19:a5:69:4e:e4:af:f5:6f:41:55:08:8a:b3:76:
        3f:73:0d:e4:ea:12:51:09:9b:d1:96:be:65:d9:80:e3:14:52:
        25:35:a1:94:e6:5f:ca:7f:fb:2c:44:3a:99:22:a2:b1:db:95:
        e1:e8:5f:87:3f:97:d5:4b:74:c1:40:79:2a:29:b5:57:7e:ba:
        57:49:5a:45:91:e6:fb:89:9f:8b:8a:3c:12:bd:e9:bb:69:82:
        61:10:c3:5c:a3:24:ec:b4:70:3e:7c:c6:50:1a:6d:18:2c:e1:
        2b:b7:c4:8b
-----BEGIN CERTIFICATE-----
MIIITjCCBzagAwIBAgIBDzANBgkqhkiG9w0BAQsFADAeMRwwGgYDVQQDDBNRVUlD
IFNlcnZlciBSb290IENBMB4XDTE2MDYwNjA2MjYxOVoXDTE2MDcwNjA2MjYxOVow
YTELMAkGA1UEBhMCVVMxEzARBgNVBAgMCkNhbGlmb3JuaWExFjAUBgNVBAcMDU1v
dW50YWluIFZpZXcxFDASBgNVBAoMC1FVSUMgU2VydmVyMQ8wDQYDVQQDDAZhLnRo
aXMwggEiMA0GCSqGSIb3DQEBAQUAA4IBDwAwggEKAoIBAQCzQd1I6A0zGF2GZ3XO
/pWFm2XSlbckXtnzw6UP7u5IjmXVzPVm87tg6Qv9//OS6+RHPSG6A9uj0C+NrStc
+whoY4Vz9bHOEBxXw5DMo1ULIyJdX56YBK/j3A9As5xrPn9MWTWBHe2t+QJtDqN3
FbK6Y/fSEK7rrRGPE+4dsthmDIz4yIFKNLnPzGFstExOuhPv+5+JNFgvGm3SJE/S
XM7hGH1tq9uzCNYXqqTE7Qx7ZqHMGTkYqhDwE1WH/T2OU2P8OCaQJ7a14Cjmz/fB
aA3VbZumXKHbeeCFM4VSO8fKFGZ1IbRCyaUPqtwRchd5UzJem2914SngnbFzEoXF
l0t9AgMBAAGjggVSMIIFTjAMBgNVHRMBAf8EAjAAMB0GA1UdDgQWBBQvR6rYWMVa
sHkRYIIzGI9UlytOgTAfBgNVHSMEGDAWgBT0M90WZujO6neTjY5ZvVNW2dnYITAd
BgNVHSUEFjAUBggrBgEFBQcDAQYIKwYBBQUHAwIwggTdBgNVHREEggTUMIIE0IIZ
c3N1bS5jYXNhbGVtZWRpYS5jb20udGhpc4ISYXBpLmJyYW5jaC5pby50aGlzghlj
bS5nLmRvdWJsZWNsaWNrLm5ldC50aGlzghN3d3cuYW1hem9uLmNvbS50aGlzghV3
d3cuYnVyc3RuZXQuY29tLnRoaXOCG3N5bmMucmh5dGhteGNoYW5nZS5jb20udGhp
c4IcZy1lY3guaW1hZ2VzLWFtYXpvbi5jb20udGhpc4IkYWF4LXVzLWVhc3QuYW1h
em9uLWFkc3lzdGVtLmNvbS50aGlzghZtZXRyaWNzLmFwcGxlLmNvbS50aGlzghZp
YS5tZWRpYS1pbWRiLmNvbS50aGlzgh50cGMuZ29vZ2xlc3luZGljYXRpb24uY29t
LnRoaXOCIHN5bmMuc2VhcmNoLnNwb3R4Y2hhbmdlLmNvbS50aGlzghBtLmltZ3Vy
LmNvbS50aGlzgiRpbWFnZXMtbmEuc3NsLWltYWdlcy1hbWF6b24uY29tLnRoaXOC
C2JuYy5sdC50aGlzgg9tLmltZGIuY29tLnRoaXOCHnNob3Bib3Auc3AxLmNvbnZl
cnRyby5jb20udGhpc4IQaS5pbWd1ci5jb20udGhpc4IZZm9udHMuZ29vZ2xlYXBp
cy5jb20udGhpc4IcYi5zY29yZWNhcmRyZXNlYXJjaC5jb20udGhpc4IRaWIuYWRu
eHMuY29tLnRoaXOCFXMubWVkaWEtaW1kYi5jb20udGhpc4ISYXBpLmltZ3VyLmNv
bS50aGlzghlwaXhlbC5xdWFudHNlcnZlLmNvbS50aGlzghV1bXMuYWR0ZWNodXMu
Y29tLnRoaXOCHHotZWN4LmltYWdlcy1hbWF6b24uY29tLnRoaXOCIHN5bmMuYWRh
cHR2LmFkdmVydGlzaW5nLmNvbS50aGlzghpzLmFtYXpvbi1hZHN5c3RlbS5jb20u
dGhpc4IWZmxzLW5hLmFtYXpvbi5jb20udGhpc4Ied3d3Lmdvb2dsZXRhZ3NlcnZp
Y2VzLmNvbS50aGlzghZiaC5jb250ZXh0d2ViLmNvbS50aGlzghJ3d3cuYXBwbGUu
Y29tLnRoaXOCFWltYWdlcy5hcHBsZS5jb20udGhpc4IXYS50aG91Z2h0bGVhZHIu
Y29tLnRoaXOCFmZvbnRzLmdzdGF0aWMuY29tLnRoaXOCFWdlby11bS5idHJsbC5j
b20udGhpc4IUdDQubGl2ZXJhaWwuY29tLnRoaXOCIXBhcnRuZXIuZ29vZ2xlYWRz
ZXJ2aWNlcy5jb20udGhpc4IYaW1hZ2U1LnB1Ym1hdGljLmNvbS50aGlzght0YXAu
cnViaWNvbnByb2plY3QuY29tLnRoaXOCFXd3dy5mYWNlYm9vay5jb20udGhpc4Ia
ZWN4LmltYWdlcy1hbWF6b24uY29tLnRoaXOCEmFkcy55YWhvby5jb20udGhpc4IQ
c3luYy4xcnguaW8udGhpc4Idd3d3Lmdvb2dsZS1hbmFseXRpY3MuY29tLnRoaXOC
E3VzLXUub3BlbngubmV0LnRoaXOCBmEudGhpc4IOY2xpZW4ubmV0LnRoaXOCECou
Y2xpZW4ubmV0LnRoaXOCCCouYS50aGlzhwR/AAABMA0GCSqGSIb3DQEBCwUAA4IB
AQAEIdRYMBOQi3KhkEhrwa2uTvZ1ZtgVyIVGD4I8K6NipKKNnU4+sGvucnX0693+
a7DNb7MFdqAADlVNXwGk0/mnDswTbc5AOeIcbN2VRFGFKQw7bDiPms98U2ELv2I6
xV/SLSqOPxlZ3dlSwg9hxCRYR7lTMBAU5VppTbwqzMrI+8LuymYnl2ejpYsV9q6t
dk8gcuvTGaVpTuSv9W9BVQiKs3Y/cw3k6hJRCZvRlr5l2YDjFFIlNaGU5l/Kf/ss
RDqZIqKx25Xh6F+HP5fVS3TBQHkqKbVXfrpXSVpFkeb7iZ+LijwSvem7aYJhEMNc
oyTstHA+fMZQGm0YLOErt8SL
-----END CERTIFICATE-----
