Certificate:
    Data:
        Version: 3 (0x2)
        Serial Number:
            86:5f:41:65:cc:54:ce:65
        Signature Algorithm: sha1WithRSAEncryption
        Issuer: CN=QUIC Server Root CA
        Validity
            Not Before: Jun  6 06:26:19 2016 GMT
            Not After : Jul  6 06:26:19 2016 GMT
        Subject: CN=QUIC Server Root CA
        Subject Public Key Info:
            Public Key Algorithm: rsaEncryption
            RSA Public Key: (2048 bit)
                Modulus (2048 bit):
                    00:ab:2d:eb:3b:37:52:5f:77:d0:20:35:43:2b:54:
                    08:0b:7e:6b:74:35:f0:f7:1f:3b:7e:bd:57:3e:44:
                    20:38:4a:ee:4a:96:39:7e:08:98:e8:03:38:62:65:
                    71:24:44:b7:2e:5e:1a:20:4c:a3:2a:06:91:84:4a:
                    33:3c:1e:ad:0e:3b:79:9a:5e:ec:6a:6b:06:17:ba:
                    ab:bc:72:62:9c:eb:69:b1:da:0e:21:b5:92:4a:57:
                    e6:70:1a:67:4c:14:b3:29:42:2b:8a:f7:26:29:7e:
                    3f:02:a3:a6:8e:18:24:86:14:a2:46:20:3f:7f:1f:
                    0e:a3:c9:f2:ad:fc:d7:a2:bd:e0:9a:85:a8:5b:0b:
                    36:72:79:7a:f8:05:6f:cb:c4:7b:25:fe:42:80:00:
                    c7:2f:3e:37:01:3a:27:5b:e5:2b:f3:d0:52:3d:b3:
                    cc:87:5d:42:89:4b:61:be:29:a6:57:56:44:ed:21:
                    42:75:8c:b9:9e:b6:a9:69:a5:89:0e:17:60:6b:d2:
                    04:e0:84:69:64:61:24:ec:96:74:cf:40:9c:25:9c:
                    80:a9:ae:cd:0b:f6:a7:e3:aa:a4:fb:9c:ec:f4:a3:
                    a6:bc:c2:53:06:ac:20:2c:9f:43:53:88:8a:eb:c0:
                    fd:04:7d:06:06:cf:d1:06:11:87:37:e8:e2:fd:37:
                    34:f5
                Exponent: 65537 (0x10001)
        X509v3 extensions:
            X509v3 Basic Constraints: critical
                CA:TRUE
            X509v3 Subject Key Identifier: 
                F4:33:DD:16:66:E8:CE:EA:77:93:8D:8E:59:BD:53:56:D9:D9:D8:21
            X509v3 Key Usage: critical
                Certificate Sign, CRL Sign
    Signature Algorithm: sha1WithRSAEncryption
        06:0a:62:24:db:11:d9:0c:9a:dd:02:bb:8d:3a:af:49:61:a2:
        77:ea:4e:fb:9f:0b:6f:54:99:e9:ff:d4:c4:31:6b:4e:f3:45:
        18:b3:88:bf:a9:1c:c2:a4:67:43:8f:63:22:16:7a:72:18:9e:
        28:aa:08:51:c5:fd:a7:67:ac:75:d9:96:c1:34:47:e8:ec:44:
        f4:e5:63:41:12:45:91:46:79:3c:6a:05:8f:71:4b:4c:6d:06:
        4d:22:24:d7:96:3d:75:2d:d1:c2:b3:af:79:ec:a2:cb:54:e3:
        4b:52:23:6f:e2:8b:dd:81:45:b3:f8:34:b7:f6:8e:b1:cc:49:
        ad:9b:8e:71:5e:f6:67:41:0d:65:d2:4b:22:b4:25:99:3c:64:
        68:86:c6:e3:40:23:2d:d7:25:c7:6f:2b:67:bf:d3:d4:9d:cb:
        3d:3a:37:92:28:08:ce:78:aa:3f:c4:ec:fa:9c:fd:6a:34:13:
        9a:ab:b5:1a:31:0f:31:cf:15:f6:fe:9d:f1:88:01:a6:f7:53:
        cf:61:3e:8f:87:40:37:aa:3b:53:26:bf:e4:44:33:38:e9:ba:
        94:cf:33:cf:a2:71:76:49:f0:71:28:c3:2d:05:7c:bf:97:e8:
        9c:15:cb:93:a7:da:cc:8f:51:7a:90:fd:d4:bb:aa:09:d5:56:
        0b:6e:78:18
-----BEGIN CERTIFICATE-----
MIIDATCCAemgAwIBAgIJAIZfQWXMVM5lMA0GCSqGSIb3DQEBBQUAMB4xHDAaBgNV
BAMME1FVSUMgU2VydmVyIFJvb3QgQ0EwHhcNMTYwNjA2MDYyNjE5WhcNMTYwNzA2
MDYyNjE5WjAeMRwwGgYDVQQDDBNRVUlDIFNlcnZlciBSb290IENBMIIBIjANBgkq
hkiG9w0BAQEFAAOCAQ8AMIIBCgKCAQEAqy3rOzdSX3fQIDVDK1QIC35rdDXw9x87
fr1XPkQgOEruSpY5fgiY6AM4YmVxJES3Ll4aIEyjKgaRhEozPB6tDjt5ml7samsG
F7qrvHJinOtpsdoOIbWSSlfmcBpnTBSzKUIrivcmKX4/AqOmjhgkhhSiRiA/fx8O
o8nyrfzXor3gmoWoWws2cnl6+AVvy8R7Jf5CgADHLz43ATonW+Ur89BSPbPMh11C
iUthvimmV1ZE7SFCdYy5nrapaaWJDhdga9IE4IRpZGEk7JZ0z0CcJZyAqa7NC/an
46qk+5zs9KOmvMJTBqwgLJ9DU4iK68D9BH0GBs/RBhGHN+ji/Tc09QIDAQABo0Iw
QDAPBgNVHRMBAf8EBTADAQH/MB0GA1UdDgQWBBT0M90WZujO6neTjY5ZvVNW2dnY
ITAOBgNVHQ8BAf8EBAMCAQYwDQYJKoZIhvcNAQEFBQADggEBAAYKYiTbEdkMmt0C
u406r0lhonfqTvufC29Umen/1MQxa07zRRiziL+pHMKkZ0OPYyIWenIYniiqCFHF
/adnrHXZlsE0R+jsRPTlY0ESRZFGeTxqBY9xS0xtBk0iJNeWPXUt0cKzr3nsostU
40tSI2/ii92BRbP4NLf2jrHMSa2bjnFe9mdBDWXSSyK0JZk8ZGiGxuNAIy3XJcdv
K2e/09Sdyz06N5IoCM54qj/E7Pqc/Wo0E5qrtRoxDzHPFfb+nfGIAab3U89hPo+H
QDeqO1Mmv+REMzjpupTPM8+icXZJ8HEowy0FfL+X6JwVy5On2syPUXqQ/dS7qgnV
VgtueBg=
-----END CERTIFICATE-----
