Certificate:
    Data:
        Version: 3 (0x2)
        Serial Number:
            c2:f4:d2:4a:1b:fe:d1:82
        Signature Algorithm: sha1WithRSAEncryption
        Issuer: CN=QUIC Server Root CA
        Validity
            Not Before: May 29 10:56:06 2016 GMT
            Not After : Jun  1 10:56:06 2016 GMT
        Subject: CN=QUIC Server Root CA
        Subject Public Key Info:
            Public Key Algorithm: rsaEncryption
            RSA Public Key: (2048 bit)
                Modulus (2048 bit):
                    00:ab:2d:eb:3b:37:52:5f:77:d0:20:35:43:2b:54:
                    08:0b:7e:6b:74:35:f0:f7:1f:3b:7e:bd:57:3e:44:
                    20:38:4a:ee:4a:96:39:7e:08:98:e8:03:38:62:65:
                    71:24:44:b7:2e:5e:1a:20:4c:a3:2a:06:91:84:4a:
                    33:3c:1e:ad:0e:3b:79:9a:5e:ec:6a:6b:06:17:ba:
                    ab:bc:72:62:9c:eb:69:b1:da:0e:21:b5:92:4a:57:
                    e6:70:1a:67:4c:14:b3:29:42:2b:8a:f7:26:29:7e:
                    3f:02:a3:a6:8e:18:24:86:14:a2:46:20:3f:7f:1f:
                    0e:a3:c9:f2:ad:fc:d7:a2:bd:e0:9a:85:a8:5b:0b:
                    36:72:79:7a:f8:05:6f:cb:c4:7b:25:fe:42:80:00:
                    c7:2f:3e:37:01:3a:27:5b:e5:2b:f3:d0:52:3d:b3:
                    cc:87:5d:42:89:4b:61:be:29:a6:57:56:44:ed:21:
                    42:75:8c:b9:9e:b6:a9:69:a5:89:0e:17:60:6b:d2:
                    04:e0:84:69:64:61:24:ec:96:74:cf:40:9c:25:9c:
                    80:a9:ae:cd:0b:f6:a7:e3:aa:a4:fb:9c:ec:f4:a3:
                    a6:bc:c2:53:06:ac:20:2c:9f:43:53:88:8a:eb:c0:
                    fd:04:7d:06:06:cf:d1:06:11:87:37:e8:e2:fd:37:
                    34:f5
                Exponent: 65537 (0x10001)
        X509v3 extensions:
            X509v3 Basic Constraints: critical
                CA:TRUE
            X509v3 Subject Key Identifier: 
                F4:33:DD:16:66:E8:CE:EA:77:93:8D:8E:59:BD:53:56:D9:D9:D8:21
            X509v3 Key Usage: critical
                Certificate Sign, CRL Sign
    Signature Algorithm: sha1WithRSAEncryption
        a4:b0:2f:d6:65:11:ff:29:99:ae:2c:06:15:f5:2b:f7:3b:6e:
        c9:71:4b:72:65:51:b4:01:d6:7b:53:c0:68:23:0c:57:5b:91:
        82:82:0b:cb:ee:95:15:2e:a5:f4:44:4f:97:17:d0:67:e5:03:
        1d:4e:c9:67:ea:52:d7:bc:55:2e:1e:d6:53:2b:4e:0c:16:2b:
        d8:d5:6f:80:61:18:8b:da:cb:37:98:ab:0d:89:1a:94:14:53:
        62:ca:8a:22:10:aa:98:03:5e:a6:1d:29:22:55:0d:d6:20:fe:
        b5:84:9e:5a:5d:d9:bc:7f:7b:5f:1e:a5:e7:57:56:e6:5a:5a:
        21:f3:47:dc:f6:72:f8:0e:00:1c:8b:a7:1a:5c:77:ed:d2:b6:
        09:d8:c3:5e:37:4c:c1:1d:60:12:2c:32:19:b4:6c:32:46:00:
        bb:6d:71:70:5c:8b:8a:17:a4:1b:2f:e2:08:be:a7:b2:3d:4c:
        48:d2:9b:fd:dd:fc:8a:6a:fe:34:9c:16:86:ab:c5:f2:e5:42:
        60:0f:96:8d:d0:20:66:b8:96:b2:c0:47:7c:f0:7e:62:71:ba:
        1a:17:58:84:b3:15:6b:6b:26:6e:c9:9c:81:d1:cd:9b:2d:df:
        c7:01:c5:9f:cf:26:87:89:46:77:9f:56:40:12:e9:15:e0:77:
        86:1b:bd:81
-----BEGIN CERTIFICATE-----
MIIDATCCAemgAwIBAgIJAML00kob/tGCMA0GCSqGSIb3DQEBBQUAMB4xHDAaBgNV
BAMME1FVSUMgU2VydmVyIFJvb3QgQ0EwHhcNMTYwNTI5MTA1NjA2WhcNMTYwNjAx
MTA1NjA2WjAeMRwwGgYDVQQDDBNRVUlDIFNlcnZlciBSb290IENBMIIBIjANBgkq
hkiG9w0BAQEFAAOCAQ8AMIIBCgKCAQEAqy3rOzdSX3fQIDVDK1QIC35rdDXw9x87
fr1XPkQgOEruSpY5fgiY6AM4YmVxJES3Ll4aIEyjKgaRhEozPB6tDjt5ml7samsG
F7qrvHJinOtpsdoOIbWSSlfmcBpnTBSzKUIrivcmKX4/AqOmjhgkhhSiRiA/fx8O
o8nyrfzXor3gmoWoWws2cnl6+AVvy8R7Jf5CgADHLz43ATonW+Ur89BSPbPMh11C
iUthvimmV1ZE7SFCdYy5nrapaaWJDhdga9IE4IRpZGEk7JZ0z0CcJZyAqa7NC/an
46qk+5zs9KOmvMJTBqwgLJ9DU4iK68D9BH0GBs/RBhGHN+ji/Tc09QIDAQABo0Iw
QDAPBgNVHRMBAf8EBTADAQH/MB0GA1UdDgQWBBT0M90WZujO6neTjY5ZvVNW2dnY
ITAOBgNVHQ8BAf8EBAMCAQYwDQYJKoZIhvcNAQEFBQADggEBAKSwL9ZlEf8pma4s
BhX1K/c7bslxS3JlUbQB1ntTwGgjDFdbkYKCC8vulRUupfRET5cX0GflAx1OyWfq
Ute8VS4e1lMrTgwWK9jVb4BhGIvayzeYqw2JGpQUU2LKiiIQqpgDXqYdKSJVDdYg
/rWEnlpd2bx/e18epedXVuZaWiHzR9z2cvgOAByLpxpcd+3StgnYw143TMEdYBIs
Mhm0bDJGALttcXBci4oXpBsv4gi+p7I9TEjSm/3d/Ipq/jScFoarxfLlQmAPlo3Q
IGa4lrLAR3zwfmJxuhoXWISzFWtrJm7JnIHRzZst38cBxZ/PJoeJRnefVkAS6RXg
d4YbvYE=
-----END CERTIFICATE-----
