Certificate:
    Data:
        Version: 3 (0x2)
        Serial Number: 14 (0xe)
        Signature Algorithm: sha256WithRSAEncryption
        Issuer: CN=QUIC Server Root CA
        Validity
            Not Before: Jun  6 05:50:37 2016 GMT
            Not After : Jul  6 05:50:37 2016 GMT
        Subject: C=US, ST=California, L=Mountain View, O=QUIC Server, CN=a.this
        Subject Public Key Info:
            Public Key Algorithm: rsaEncryption
            RSA Public Key: (2048 bit)
                Modulus (2048 bit):
                    00:c2:e1:c2:9e:44:47:cd:f3:63:cb:dd:93:a6:a2:
                    7d:c9:d6:39:cf:09:e2:be:e7:4b:e2:33:12:7a:12:
                    33:ae:f7:8d:3b:3b:bb:c6:22:1c:e3:3f:09:41:ed:
                    c8:31:a6:14:f1:4c:e5:3e:2a:72:e9:5b:f6:80:bd:
                    a6:02:78:47:bc:59:ff:4d:4e:91:52:6b:21:c4:61:
                    05:81:3f:df:aa:df:63:a8:b2:8b:a3:b2:1a:cf:12:
                    d6:d7:2b:81:18:cd:83:49:e2:16:9a:e9:06:f0:88:
                    9b:3e:e1:3e:0e:ec:23:24:02:27:83:f4:4d:31:f1:
                    ee:a4:d6:7f:ad:7c:0f:20:46:e8:38:b3:be:d7:5b:
                    9a:ce:8f:a4:18:78:05:5f:ed:8c:27:f3:dc:b4:0f:
                    0e:76:a1:2c:a8:08:95:45:3d:8c:46:2b:27:db:f4:
                    37:d8:7b:76:cb:7b:0a:67:e0:ed:9c:ca:7a:72:19:
                    13:53:d8:df:70:ff:c3:18:a9:ad:f1:ab:d4:4c:26:
                    40:29:04:a2:c7:ec:5f:f0:28:1f:fb:79:13:58:61:
                    a9:0b:5c:87:42:91:55:53:89:e5:59:76:03:ea:e4:
                    5d:08:61:b3:f2:ee:40:21:65:93:21:c3:32:c9:51:
                    3c:4d:ec:9e:6a:34:b1:67:3c:d6:f4:b0:d2:a4:78:
                    bd:99
                Exponent: 65537 (0x10001)
        X509v3 extensions:
            X509v3 Basic Constraints: critical
                CA:FALSE
            X509v3 Subject Key Identifier: 
                25:9E:E7:AD:CB:04:9B:50:EB:9D:96:72:BD:9F:70:1C:7E:4B:16:E3
            X509v3 Authority Key Identifier: 
                keyid:F4:33:DD:16:66:E8:CE:EA:77:93:8D:8E:59:BD:53:56:D9:D9:D8:21

            X509v3 Extended Key Usage: 
                TLS Web Server Authentication, TLS Web Client Authentication
            X509v3 Subject Alternative Name: 
                DNS:ssum.casalemedia.com.this, DNS:api.branch.io.this, DNS:cm.g.doubleclick.net.this, DNS:www.amazon.com.this, DNS:www.burstnet.com.this, DNS:sync.rhythmxchange.com.this, DNS:g-ecx.images-amazon.com.this, DNS:aax-us-east.amazon-adsystem.com.this, DNS:metrics.apple.com.this, DNS:ia.media-imdb.com.this, DNS:tpc.googlesyndication.com.this, DNS:sync.search.spotxchange.com.this, DNS:m.imgur.com.this, DNS:images-na.ssl-images-amazon.com.this, DNS:bnc.lt.this, DNS:m.imdb.com.this, DNS:shopbop.sp1.convertro.com.this, DNS:i.imgur.com.this, DNS:fonts.googleapis.com.this, DNS:b.scorecardresearch.com.this, DNS:ib.adnxs.com.this, DNS:s.media-imdb.com.this, DNS:api.imgur.com.this, DNS:pixel.quantserve.com.this, DNS:ums.adtechus.com.this, DNS:z-ecx.images-amazon.com.this, DNS:sync.adaptv.advertising.com.this, DNS:s.amazon-adsystem.com.this, DNS:fls-na.amazon.com.this, DNS:www.googletagservices.com.this, DNS:bh.contextweb.com.this, DNS:www.apple.com.this, DNS:images.apple.com.this, DNS:a.thoughtleadr.com.this, DNS:fonts.gstatic.com.this, DNS:geo-um.btrll.com.this, DNS:t4.liverail.com.this, DNS:partner.googleadservices.com.this, DNS:image5.pubmatic.com.this, DNS:tap.rubiconproject.com.this, DNS:www.facebook.com.this, DNS:ecx.images-amazon.com.this, DNS:ads.yahoo.com.this, DNS:sync.1rx.io.this, DNS:www.google-analytics.com.this, DNS:us-u.openx.net.this, DNS:a.this, DNS:clien.net.this, DNS:*.clien.net.this, DNS:*.a.this, IP Address:127.0.0.1
    Signature Algorithm: sha256WithRSAEncryption
        6b:ca:20:3c:e2:0c:b5:f7:1b:a1:de:ec:f0:3a:97:fa:af:1a:
        8d:11:94:55:15:0d:d1:fb:f4:c0:fc:4b:7e:2d:5c:4c:05:d6:
        51:0e:fa:ba:f5:08:e4:13:a3:3b:c3:80:d5:e1:8b:de:a7:58:
        f0:9b:9c:a9:b4:6e:25:93:54:b5:35:38:f5:73:f9:53:b7:3a:
        72:e9:88:87:20:5d:16:eb:0e:b7:02:d4:e4:ea:41:fe:e7:9f:
        36:6c:50:1c:ab:37:f7:9f:d0:8e:c0:44:4c:d1:49:14:f8:79:
        35:a0:9f:14:a1:ab:17:e6:22:17:d5:bf:16:f7:5a:87:07:a1:
        d6:03:a7:e8:58:2c:79:29:f9:b7:95:2d:bf:ca:88:c7:7c:fc:
        7a:73:50:03:fc:8f:70:bd:64:93:d8:02:ef:e8:5b:b6:84:af:
        84:80:e9:74:10:80:9f:07:7d:08:4d:97:6d:e4:1d:f3:b9:b2:
        09:55:cb:59:0d:b0:53:d0:8b:7b:bb:a0:8b:1e:29:85:bf:ef:
        e3:28:d6:45:89:88:d7:5a:91:14:45:f9:d8:77:a0:eb:80:e4:
        50:89:35:ff:da:e9:3b:dd:df:6b:72:35:1a:65:50:1f:24:1d:
        8c:27:3f:28:c7:78:dd:88:c4:ce:a5:9d:c3:60:2d:33:c4:48:
        8f:99:e3:54
-----BEGIN CERTIFICATE-----
MIIITjCCBzagAwIBAgIBDjANBgkqhkiG9w0BAQsFADAeMRwwGgYDVQQDDBNRVUlD
IFNlcnZlciBSb290IENBMB4XDTE2MDYwNjA1NTAzN1oXDTE2MDcwNjA1NTAzN1ow
YTELMAkGA1UEBhMCVVMxEzARBgNVBAgMCkNhbGlmb3JuaWExFjAUBgNVBAcMDU1v
dW50YWluIFZpZXcxFDASBgNVBAoMC1FVSUMgU2VydmVyMQ8wDQYDVQQDDAZhLnRo
aXMwggEiMA0GCSqGSIb3DQEBAQUAA4IBDwAwggEKAoIBAQDC4cKeREfN82PL3ZOm
on3J1jnPCeK+50viMxJ6EjOu9407O7vGIhzjPwlB7cgxphTxTOU+KnLpW/aAvaYC
eEe8Wf9NTpFSayHEYQWBP9+q32OosoujshrPEtbXK4EYzYNJ4haa6QbwiJs+4T4O
7CMkAieD9E0x8e6k1n+tfA8gRug4s77XW5rOj6QYeAVf7Ywn89y0Dw52oSyoCJVF
PYxGKyfb9DfYe3bLewpn4O2cynpyGRNT2N9w/8MYqa3xq9RMJkApBKLH7F/wKB/7
eRNYYakLXIdCkVVTieVZdgPq5F0IYbPy7kAhZZMhwzLJUTxN7J5qNLFnPNb0sNKk
eL2ZAgMBAAGjggVSMIIFTjAMBgNVHRMBAf8EAjAAMB0GA1UdDgQWBBQlnuetywSb
UOudlnK9n3AcfksW4zAfBgNVHSMEGDAWgBT0M90WZujO6neTjY5ZvVNW2dnYITAd
BgNVHSUEFjAUBggrBgEFBQcDAQYIKwYBBQUHAwIwggTdBgNVHREEggTUMIIE0IIZ
c3N1bS5jYXNhbGVtZWRpYS5jb20udGhpc4ISYXBpLmJyYW5jaC5pby50aGlzghlj
bS5nLmRvdWJsZWNsaWNrLm5ldC50aGlzghN3d3cuYW1hem9uLmNvbS50aGlzghV3
d3cuYnVyc3RuZXQuY29tLnRoaXOCG3N5bmMucmh5dGhteGNoYW5nZS5jb20udGhp
c4IcZy1lY3guaW1hZ2VzLWFtYXpvbi5jb20udGhpc4IkYWF4LXVzLWVhc3QuYW1h
em9uLWFkc3lzdGVtLmNvbS50aGlzghZtZXRyaWNzLmFwcGxlLmNvbS50aGlzghZp
YS5tZWRpYS1pbWRiLmNvbS50aGlzgh50cGMuZ29vZ2xlc3luZGljYXRpb24uY29t
LnRoaXOCIHN5bmMuc2VhcmNoLnNwb3R4Y2hhbmdlLmNvbS50aGlzghBtLmltZ3Vy
LmNvbS50aGlzgiRpbWFnZXMtbmEuc3NsLWltYWdlcy1hbWF6b24uY29tLnRoaXOC
C2JuYy5sdC50aGlzgg9tLmltZGIuY29tLnRoaXOCHnNob3Bib3Auc3AxLmNvbnZl
cnRyby5jb20udGhpc4IQaS5pbWd1ci5jb20udGhpc4IZZm9udHMuZ29vZ2xlYXBp
cy5jb20udGhpc4IcYi5zY29yZWNhcmRyZXNlYXJjaC5jb20udGhpc4IRaWIuYWRu
eHMuY29tLnRoaXOCFXMubWVkaWEtaW1kYi5jb20udGhpc4ISYXBpLmltZ3VyLmNv
bS50aGlzghlwaXhlbC5xdWFudHNlcnZlLmNvbS50aGlzghV1bXMuYWR0ZWNodXMu
Y29tLnRoaXOCHHotZWN4LmltYWdlcy1hbWF6b24uY29tLnRoaXOCIHN5bmMuYWRh
cHR2LmFkdmVydGlzaW5nLmNvbS50aGlzghpzLmFtYXpvbi1hZHN5c3RlbS5jb20u
dGhpc4IWZmxzLW5hLmFtYXpvbi5jb20udGhpc4Ied3d3Lmdvb2dsZXRhZ3NlcnZp
Y2VzLmNvbS50aGlzghZiaC5jb250ZXh0d2ViLmNvbS50aGlzghJ3d3cuYXBwbGUu
Y29tLnRoaXOCFWltYWdlcy5hcHBsZS5jb20udGhpc4IXYS50aG91Z2h0bGVhZHIu
Y29tLnRoaXOCFmZvbnRzLmdzdGF0aWMuY29tLnRoaXOCFWdlby11bS5idHJsbC5j
b20udGhpc4IUdDQubGl2ZXJhaWwuY29tLnRoaXOCIXBhcnRuZXIuZ29vZ2xlYWRz
ZXJ2aWNlcy5jb20udGhpc4IYaW1hZ2U1LnB1Ym1hdGljLmNvbS50aGlzght0YXAu
cnViaWNvbnByb2plY3QuY29tLnRoaXOCFXd3dy5mYWNlYm9vay5jb20udGhpc4Ia
ZWN4LmltYWdlcy1hbWF6b24uY29tLnRoaXOCEmFkcy55YWhvby5jb20udGhpc4IQ
c3luYy4xcnguaW8udGhpc4Idd3d3Lmdvb2dsZS1hbmFseXRpY3MuY29tLnRoaXOC
E3VzLXUub3BlbngubmV0LnRoaXOCBmEudGhpc4IOY2xpZW4ubmV0LnRoaXOCECou
Y2xpZW4ubmV0LnRoaXOCCCouYS50aGlzhwR/AAABMA0GCSqGSIb3DQEBCwUAA4IB
AQBryiA84gy19xuh3uzwOpf6rxqNEZRVFQ3R+/TA/Et+LVxMBdZRDvq69QjkE6M7
w4DV4Yvep1jwm5yptG4lk1S1NTj1c/lTtzpy6YiHIF0W6w63AtTk6kH+5582bFAc
qzf3n9COwERM0UkU+Hk1oJ8UoasX5iIX1b8W91qHB6HWA6foWCx5Kfm3lS2/yojH
fPx6c1AD/I9wvWST2ALv6Fu2hK+EgOl0EICfB30ITZdt5B3zubIJVctZDbBT0It7
u6CLHimFv+/jKNZFiYjXWpEURfnYd6DrgORQiTX/2uk73d9rcjUaZVAfJB2MJz8o
x3jdiMTOpZ3DYC0zxEiPmeNU
-----END CERTIFICATE-----
